Certificate:
    Data:
        Version: 3 (0x2)
        Serial Number: 728010 (0xb1bca)
        Signature Algorithm: sha256WithRSAEncryption
        Issuer: CN=web-platform-tests
        Validity
            Not Before: Feb 12 01:56:30 2026 GMT
            Not After : Feb 12 01:56:30 2027 GMT
        Subject: CN=web-platform.test
        Subject Public Key Info:
            Public Key Algorithm: rsaEncryption
                Public-Key: (2048 bit)
                Modulus:
                    00:f7:a7:aa:65:9d:ae:c7:68:4c:b5:55:50:2e:6a:
                    03:59:74:21:7a:c8:75:10:54:8e:58:51:66:b6:0d:
                    6b:4c:13:5c:3e:50:66:b9:61:ff:50:9d:cf:3e:77:
                    45:50:da:ee:1c:2c:6f:0d:61:bb:27:23:49:f7:9c:
                    1f:fc:10:1c:80:4e:2e:fc:a9:dc:f6:c2:2f:57:28:
                    c1:55:e8:1c:ba:bd:6e:13:5f:4f:3e:54:1e:42:ba:
                    ea:49:f2:44:8d:ca:73:01:16:5a:69:30:c5:76:d8:
                    e0:3a:a3:aa:22:8e:b5:d9:de:c4:6a:cd:ef:29:26:
                    51:37:15:8b:a6:d5:a9:fa:9d:96:8d:96:63:30:83:
                    4b:74:87:50:45:24:65:9d:69:8a:4f:a8:88:b7:82:
                    82:e7:3a:a4:2f:b7:42:46:75:76:28:ce:74:b6:3e:
                    b3:6a:e1:bb:93:8a:af:4b:ed:4b:4a:f9:7e:2c:dd:
                    3b:26:24:be:5e:6c:8e:02:00:eb:c5:7c:84:f8:9c:
                    f7:b0:7a:ea:95:46:2b:bc:41:d3:da:32:90:e0:1a:
                    b1:f8:22:4a:ca:1e:82:5d:55:8f:77:15:8d:84:2e:
                    c5:20:48:a9:88:fd:34:16:af:f1:39:5f:ed:ca:7c:
                    95:e8:28:8e:01:66:32:ec:03:13:ad:16:8e:5a:98:
                    8e:ad
                Exponent: 65537 (0x10001)
        X509v3 extensions:
            X509v3 Basic Constraints: 
                CA:FALSE
            X509v3 Subject Key Identifier: 
                4F:28:7F:8E:29:51:A2:94:ED:65:6B:40:2D:8D:28:E8:44:2A:FC:4A
            X509v3 Authority Key Identifier: 
                DB:6F:67:55:D0:C7:EC:8E:7D:C1:D3:F1:11:B8:A0:D3:9A:66:0F:38
            X509v3 Key Usage: 
                Digital Signature, Non Repudiation, Key Encipherment
            X509v3 Extended Key Usage: 
                TLS Web Server Authentication
            X509v3 Subject Alternative Name: 
                DNS:web-platform.test, DNS:www.web-platform.test, DNS:not-web-platform.test, DNS:www1.web-platform.test, DNS:www2.web-platform.test, DNS:www.www.web-platform.test, DNS:www.not-web-platform.test, DNS:www2.www.web-platform.test, DNS:www2.not-web-platform.test, DNS:www.www1.web-platform.test, DNS:www1.not-web-platform.test, DNS:www1.www.web-platform.test, DNS:www.www2.web-platform.test, DNS:www1.www2.web-platform.test, DNS:www2.www2.web-platform.test, DNS:www1.www1.web-platform.test, DNS:www2.www1.web-platform.test, DNS:www.www.not-web-platform.test, DNS:www.www1.not-web-platform.test, DNS:www2.www.not-web-platform.test, DNS:www.www2.not-web-platform.test, DNS:www1.www.not-web-platform.test, DNS:xn--lve-6lad.web-platform.test, DNS:www1.www1.not-web-platform.test, DNS:www1.www2.not-web-platform.test, DNS:www2.www1.not-web-platform.test, DNS:www2.www2.not-web-platform.test, DNS:xn--lve-6lad.not-web-platform.test, DNS:www.xn--lve-6lad.web-platform.test, DNS:xn--lve-6lad.www.web-platform.test, DNS:www2.xn--lve-6lad.web-platform.test, DNS:xn--lve-6lad.www1.web-platform.test, DNS:www1.xn--lve-6lad.web-platform.test, DNS:xn--lve-6lad.www2.web-platform.test, DNS:xn--lve-6lad.www.not-web-platform.test, DNS:www.xn--lve-6lad.not-web-platform.test, DNS:xn--lve-6lad.www1.not-web-platform.test, DNS:www2.xn--lve-6lad.not-web-platform.test, DNS:xn--lve-6lad.www2.not-web-platform.test, DNS:www1.xn--lve-6lad.not-web-platform.test, DNS:xn--n8j6ds53lwwkrqhv28a.web-platform.test, DNS:xn--lve-6lad.xn--lve-6lad.web-platform.test, DNS:xn--n8j6ds53lwwkrqhv28a.not-web-platform.test, DNS:xn--n8j6ds53lwwkrqhv28a.www.web-platform.test, DNS:www.xn--n8j6ds53lwwkrqhv28a.web-platform.test, DNS:xn--n8j6ds53lwwkrqhv28a.www2.web-platform.test, DNS:www1.xn--n8j6ds53lwwkrqhv28a.web-platform.test, DNS:www2.xn--n8j6ds53lwwkrqhv28a.web-platform.test, DNS:xn--n8j6ds53lwwkrqhv28a.www1.web-platform.test, DNS:xn--lve-6lad.xn--lve-6lad.not-web-platform.test, DNS:www.xn--n8j6ds53lwwkrqhv28a.not-web-platform.test, DNS:xn--n8j6ds53lwwkrqhv28a.www.not-web-platform.test, DNS:www1.xn--n8j6ds53lwwkrqhv28a.not-web-platform.test, DNS:xn--n8j6ds53lwwkrqhv28a.www1.not-web-platform.test, DNS:www2.xn--n8j6ds53lwwkrqhv28a.not-web-platform.test, DNS:xn--n8j6ds53lwwkrqhv28a.www2.not-web-platform.test, DNS:xn--lve-6lad.xn--n8j6ds53lwwkrqhv28a.web-platform.test, DNS:xn--n8j6ds53lwwkrqhv28a.xn--lve-6lad.web-platform.test, DNS:xn--lve-6lad.xn--n8j6ds53lwwkrqhv28a.not-web-platform.test, DNS:xn--n8j6ds53lwwkrqhv28a.xn--lve-6lad.not-web-platform.test, DNS:xn--n8j6ds53lwwkrqhv28a.xn--n8j6ds53lwwkrqhv28a.web-platform.test, DNS:xn--n8j6ds53lwwkrqhv28a.xn--n8j6ds53lwwkrqhv28a.not-web-platform.test
    Signature Algorithm: sha256WithRSAEncryption
    Signature Value:
        59:f6:ca:8f:32:4e:02:60:ed:3e:b4:bb:79:6a:5e:1d:39:cb:
        2a:b4:3f:0b:e3:09:69:e9:55:2f:04:67:6e:ae:38:0f:f1:ed:
        83:14:62:ed:a5:0d:96:42:93:3a:75:98:3b:0d:0a:4e:d4:d8:
        46:bc:fc:2d:b7:86:bb:41:18:6d:2c:2e:31:8e:2b:5c:73:3f:
        cc:84:e4:41:ed:c6:84:d6:4c:e0:22:be:98:4b:f1:58:af:bd:
        89:b0:5e:b0:16:8d:c7:e2:0d:ad:89:71:0d:43:ba:c0:31:a1:
        53:de:b6:83:88:c2:2a:0e:46:2b:9f:4b:2b:2d:44:fa:cf:b6:
        5d:79:fd:61:32:e8:9f:81:c6:42:c2:dc:b9:e0:d3:df:2c:b2:
        54:c1:7a:e5:e8:af:18:1f:d3:de:99:f2:de:e3:b0:cd:5f:b4:
        e2:99:84:e5:af:b0:3f:84:a2:eb:fd:8f:06:24:be:9f:2c:bf:
        5b:86:21:b2:f1:0a:15:8b:2a:40:f4:84:df:44:1a:74:1b:14:
        15:78:de:ad:98:4c:18:43:00:fc:3d:ce:7a:a4:8b:9b:b4:13:
        ce:15:04:7f:5c:25:39:02:cc:13:83:cc:48:42:16:f8:b2:a7:
        31:40:25:9d:1d:68:25:58:ab:0b:c4:de:f8:77:33:29:37:e5:
        bd:9f:2f:a4
-----BEGIN CERTIFICATE-----
MIIMsjCCC5qgAwIBAgIDCxvKMA0GCSqGSIb3DQEBCwUAMB0xGzAZBgNVBAMMEndl
Yi1wbGF0Zm9ybS10ZXN0czAeFw0yNjAyMTIwMTU2MzBaFw0yNzAyMTIwMTU2MzBa
MBwxGjAYBgNVBAMMEXdlYi1wbGF0Zm9ybS50ZXN0MIIBIjANBgkqhkiG9w0BAQEF
AAOCAQ8AMIIBCgKCAQEA96eqZZ2ux2hMtVVQLmoDWXQhesh1EFSOWFFmtg1rTBNc
PlBmuWH/UJ3PPndFUNruHCxvDWG7JyNJ95wf/BAcgE4u/Knc9sIvVyjBVegcur1u
E19PPlQeQrrqSfJEjcpzARZaaTDFdtjgOqOqIo612d7Eas3vKSZRNxWLptWp+p2W
jZZjMINLdIdQRSRlnWmKT6iIt4KC5zqkL7dCRnV2KM50tj6zauG7k4qvS+1LSvl+
LN07JiS+XmyOAgDrxXyE+Jz3sHrqlUYrvEHT2jKQ4Bqx+CJKyh6CXVWPdxWNhC7F
IEipiP00Fq/xOV/tynyV6CiOAWYy7AMTrRaOWpiOrQIDAQABo4IJ+jCCCfYwCQYD
VR0TBAIwADAdBgNVHQ4EFgQUTyh/jilRopTtZWtALY0o6EQq/EowHwYDVR0jBBgw
FoAU229nVdDH7I59wdPxEbig05pmDzgwCwYDVR0PBAQDAgXgMBMGA1UdJQQMMAoG
CCsGAQUFBwMBMIIJhQYDVR0RBIIJfDCCCXiCEXdlYi1wbGF0Zm9ybS50ZXN0ghV3
d3cud2ViLXBsYXRmb3JtLnRlc3SCFW5vdC13ZWItcGxhdGZvcm0udGVzdIIWd3d3
MS53ZWItcGxhdGZvcm0udGVzdIIWd3d3Mi53ZWItcGxhdGZvcm0udGVzdIIZd3d3
Lnd3dy53ZWItcGxhdGZvcm0udGVzdIIZd3d3Lm5vdC13ZWItcGxhdGZvcm0udGVz
dIIad3d3Mi53d3cud2ViLXBsYXRmb3JtLnRlc3SCGnd3dzIubm90LXdlYi1wbGF0
Zm9ybS50ZXN0ghp3d3cud3d3MS53ZWItcGxhdGZvcm0udGVzdIIad3d3MS5ub3Qt
d2ViLXBsYXRmb3JtLnRlc3SCGnd3dzEud3d3LndlYi1wbGF0Zm9ybS50ZXN0ghp3
d3cud3d3Mi53ZWItcGxhdGZvcm0udGVzdIIbd3d3MS53d3cyLndlYi1wbGF0Zm9y
bS50ZXN0ght3d3cyLnd3dzIud2ViLXBsYXRmb3JtLnRlc3SCG3d3dzEud3d3MS53
ZWItcGxhdGZvcm0udGVzdIIbd3d3Mi53d3cxLndlYi1wbGF0Zm9ybS50ZXN0gh13
d3cud3d3Lm5vdC13ZWItcGxhdGZvcm0udGVzdIIed3d3Lnd3dzEubm90LXdlYi1w
bGF0Zm9ybS50ZXN0gh53d3cyLnd3dy5ub3Qtd2ViLXBsYXRmb3JtLnRlc3SCHnd3
dy53d3cyLm5vdC13ZWItcGxhdGZvcm0udGVzdIIed3d3MS53d3cubm90LXdlYi1w
bGF0Zm9ybS50ZXN0gh54bi0tbHZlLTZsYWQud2ViLXBsYXRmb3JtLnRlc3SCH3d3
dzEud3d3MS5ub3Qtd2ViLXBsYXRmb3JtLnRlc3SCH3d3dzEud3d3Mi5ub3Qtd2Vi
LXBsYXRmb3JtLnRlc3SCH3d3dzIud3d3MS5ub3Qtd2ViLXBsYXRmb3JtLnRlc3SC
H3d3dzIud3d3Mi5ub3Qtd2ViLXBsYXRmb3JtLnRlc3SCInhuLS1sdmUtNmxhZC5u
b3Qtd2ViLXBsYXRmb3JtLnRlc3SCInd3dy54bi0tbHZlLTZsYWQud2ViLXBsYXRm
b3JtLnRlc3SCInhuLS1sdmUtNmxhZC53d3cud2ViLXBsYXRmb3JtLnRlc3SCI3d3
dzIueG4tLWx2ZS02bGFkLndlYi1wbGF0Zm9ybS50ZXN0giN4bi0tbHZlLTZsYWQu
d3d3MS53ZWItcGxhdGZvcm0udGVzdIIjd3d3MS54bi0tbHZlLTZsYWQud2ViLXBs
YXRmb3JtLnRlc3SCI3huLS1sdmUtNmxhZC53d3cyLndlYi1wbGF0Zm9ybS50ZXN0
giZ4bi0tbHZlLTZsYWQud3d3Lm5vdC13ZWItcGxhdGZvcm0udGVzdIImd3d3Lnhu
LS1sdmUtNmxhZC5ub3Qtd2ViLXBsYXRmb3JtLnRlc3SCJ3huLS1sdmUtNmxhZC53
d3cxLm5vdC13ZWItcGxhdGZvcm0udGVzdIInd3d3Mi54bi0tbHZlLTZsYWQubm90
LXdlYi1wbGF0Zm9ybS50ZXN0gid4bi0tbHZlLTZsYWQud3d3Mi5ub3Qtd2ViLXBs
YXRmb3JtLnRlc3SCJ3d3dzEueG4tLWx2ZS02bGFkLm5vdC13ZWItcGxhdGZvcm0u
dGVzdIIpeG4tLW44ajZkczUzbHd3a3JxaHYyOGEud2ViLXBsYXRmb3JtLnRlc3SC
K3huLS1sdmUtNmxhZC54bi0tbHZlLTZsYWQud2ViLXBsYXRmb3JtLnRlc3SCLXhu
LS1uOGo2ZHM1M2x3d2tycWh2MjhhLm5vdC13ZWItcGxhdGZvcm0udGVzdIIteG4t
LW44ajZkczUzbHd3a3JxaHYyOGEud3d3LndlYi1wbGF0Zm9ybS50ZXN0gi13d3cu
eG4tLW44ajZkczUzbHd3a3JxaHYyOGEud2ViLXBsYXRmb3JtLnRlc3SCLnhuLS1u
OGo2ZHM1M2x3d2tycWh2MjhhLnd3dzIud2ViLXBsYXRmb3JtLnRlc3SCLnd3dzEu
eG4tLW44ajZkczUzbHd3a3JxaHYyOGEud2ViLXBsYXRmb3JtLnRlc3SCLnd3dzIu
eG4tLW44ajZkczUzbHd3a3JxaHYyOGEud2ViLXBsYXRmb3JtLnRlc3SCLnhuLS1u
OGo2ZHM1M2x3d2tycWh2MjhhLnd3dzEud2ViLXBsYXRmb3JtLnRlc3SCL3huLS1s
dmUtNmxhZC54bi0tbHZlLTZsYWQubm90LXdlYi1wbGF0Zm9ybS50ZXN0gjF3d3cu
eG4tLW44ajZkczUzbHd3a3JxaHYyOGEubm90LXdlYi1wbGF0Zm9ybS50ZXN0gjF4
bi0tbjhqNmRzNTNsd3drcnFodjI4YS53d3cubm90LXdlYi1wbGF0Zm9ybS50ZXN0
gjJ3d3cxLnhuLS1uOGo2ZHM1M2x3d2tycWh2MjhhLm5vdC13ZWItcGxhdGZvcm0u
dGVzdIIyeG4tLW44ajZkczUzbHd3a3JxaHYyOGEud3d3MS5ub3Qtd2ViLXBsYXRm
b3JtLnRlc3SCMnd3dzIueG4tLW44ajZkczUzbHd3a3JxaHYyOGEubm90LXdlYi1w
bGF0Zm9ybS50ZXN0gjJ4bi0tbjhqNmRzNTNsd3drcnFodjI4YS53d3cyLm5vdC13
ZWItcGxhdGZvcm0udGVzdII2eG4tLWx2ZS02bGFkLnhuLS1uOGo2ZHM1M2x3d2ty
cWh2MjhhLndlYi1wbGF0Zm9ybS50ZXN0gjZ4bi0tbjhqNmRzNTNsd3drcnFodjI4
YS54bi0tbHZlLTZsYWQud2ViLXBsYXRmb3JtLnRlc3SCOnhuLS1sdmUtNmxhZC54
bi0tbjhqNmRzNTNsd3drcnFodjI4YS5ub3Qtd2ViLXBsYXRmb3JtLnRlc3SCOnhu
LS1uOGo2ZHM1M2x3d2tycWh2MjhhLnhuLS1sdmUtNmxhZC5ub3Qtd2ViLXBsYXRm
b3JtLnRlc3SCQXhuLS1uOGo2ZHM1M2x3d2tycWh2MjhhLnhuLS1uOGo2ZHM1M2x3
d2tycWh2MjhhLndlYi1wbGF0Zm9ybS50ZXN0gkV4bi0tbjhqNmRzNTNsd3drcnFo
djI4YS54bi0tbjhqNmRzNTNsd3drcnFodjI4YS5ub3Qtd2ViLXBsYXRmb3JtLnRl
c3QwDQYJKoZIhvcNAQELBQADggEBAFn2yo8yTgJg7T60u3lqXh05yyq0PwvjCWnp
VS8EZ26uOA/x7YMUYu2lDZZCkzp1mDsNCk7U2Ea8/C23hrtBGG0sLjGOK1xzP8yE
5EHtxoTWTOAivphL8VivvYmwXrAWjcfiDa2JcQ1DusAxoVPetoOIwioORiufSyst
RPrPtl15/WEy6J+BxkLC3Lng098sslTBeuXorxgf096Z8t7jsM1ftOKZhOWvsD+E
ouv9jwYkvp8sv1uGIbLxChWLKkD0hN9EGnQbFBV43q2YTBhDAPw9znqki5u0E84V
BH9cJTkCzBODzEhCFviypzFAJZ0daCVYqwvE3vh3Myk35b2fL6Q=
-----END CERTIFICATE-----
