Certificate:
    Data:
        Version: 3 (0x2)
        Serial Number: 461167 (0x7096f)
        Signature Algorithm: sha256WithRSAEncryption
        Issuer: CN=web-platform-tests
        Validity
            Not Before: May 12 00:57:31 2023 GMT
            Not After : May 11 00:57:31 2024 GMT
        Subject: CN=web-platform.test
        Subject Public Key Info:
            Public Key Algorithm: rsaEncryption
                RSA Public-Key: (2048 bit)
                Modulus:
                    00:b6:b2:41:85:0a:ff:1b:de:ff:a9:29:26:e7:ff:
                    64:69:71:6c:d4:69:bd:7f:81:b4:60:c9:d7:e2:74:
                    fe:fa:d8:bb:6c:8f:92:fe:b6:e6:87:b5:dc:ef:aa:
                    de:da:d7:24:9c:dd:fc:03:af:8f:6a:26:dc:5c:59:
                    9a:c5:2a:5e:f1:79:c2:80:f3:8e:e2:b3:1d:56:a0:
                    f9:be:7e:60:30:68:b4:0f:a9:09:47:fa:18:13:ac:
                    07:eb:a1:f3:76:d8:53:de:c1:a2:b3:f9:70:9e:18:
                    82:11:6e:78:a9:66:cb:2f:d1:37:77:a3:50:b9:b1:
                    85:66:85:db:28:29:15:a7:17:dd:11:35:75:02:b4:
                    9d:46:72:bb:67:0f:1b:9a:61:8f:e5:fb:e9:f7:1f:
                    1d:fb:9d:44:2d:8b:0d:88:0b:b7:ea:7c:23:cc:b0:
                    53:86:88:f7:9f:b2:45:6e:36:85:03:5f:20:61:4d:
                    dd:2b:65:61:17:a9:4f:ea:af:18:65:8e:44:45:51:
                    5a:bc:20:b5:b0:e8:87:b5:06:0b:2d:f8:75:16:f1:
                    2a:74:0e:2a:f6:55:17:29:62:82:0c:58:5e:0d:63:
                    b4:f2:78:2d:fd:c5:6c:f8:14:6a:02:1a:23:37:35:
                    d5:8d:08:3c:9f:3a:ac:c3:28:57:ae:6b:50:eb:dc:
                    08:e1
                Exponent: 65537 (0x10001)
        X509v3 extensions:
            X509v3 Basic Constraints: 
                CA:FALSE
            X509v3 Subject Key Identifier: 
                55:E3:89:23:FF:B4:2F:9B:59:D4:B8:B7:E4:0D:C2:9A:61:86:2D:A6
            X509v3 Authority Key Identifier: 
                keyid:F1:12:46:9B:7E:E0:F8:EC:98:E3:FE:8E:71:43:86:49:20:F8:A4:E5

            X509v3 Key Usage: 
                Digital Signature, Non Repudiation, Key Encipherment
            X509v3 Extended Key Usage: 
                TLS Web Server Authentication
            X509v3 Subject Alternative Name: 
                DNS:web-platform.test, DNS:not-web-platform.test, DNS:www.web-platform.test, DNS:www1.web-platform.test, DNS:www2.web-platform.test, DNS:www.not-web-platform.test, DNS:www.www.web-platform.test, DNS:www.www2.web-platform.test, DNS:www.www1.web-platform.test, DNS:www2.not-web-platform.test, DNS:www2.www.web-platform.test, DNS:www1.www.web-platform.test, DNS:www1.not-web-platform.test, DNS:www1.www2.web-platform.test, DNS:www1.www1.web-platform.test, DNS:www2.www2.web-platform.test, DNS:www2.www1.web-platform.test, DNS:www.www.not-web-platform.test, DNS:www.www2.not-web-platform.test, DNS:www.www1.not-web-platform.test, DNS:www2.www.not-web-platform.test, DNS:www1.www.not-web-platform.test, DNS:xn--lve-6lad.web-platform.test, DNS:www1.www1.not-web-platform.test, DNS:www1.www2.not-web-platform.test, DNS:www2.www2.not-web-platform.test, DNS:www2.www1.not-web-platform.test, DNS:xn--lve-6lad.www.web-platform.test, DNS:xn--lve-6lad.not-web-platform.test, DNS:www.xn--lve-6lad.web-platform.test, DNS:xn--lve-6lad.www2.web-platform.test, DNS:www1.xn--lve-6lad.web-platform.test, DNS:www2.xn--lve-6lad.web-platform.test, DNS:xn--lve-6lad.www1.web-platform.test, DNS:xn--lve-6lad.www.not-web-platform.test, DNS:www.xn--lve-6lad.not-web-platform.test, DNS:www2.xn--lve-6lad.not-web-platform.test, DNS:www1.xn--lve-6lad.not-web-platform.test, DNS:xn--lve-6lad.www2.not-web-platform.test, DNS:xn--lve-6lad.www1.not-web-platform.test, DNS:xn--n8j6ds53lwwkrqhv28a.web-platform.test, DNS:xn--lve-6lad.xn--lve-6lad.web-platform.test, DNS:xn--n8j6ds53lwwkrqhv28a.www.web-platform.test, DNS:www.xn--n8j6ds53lwwkrqhv28a.web-platform.test, DNS:xn--n8j6ds53lwwkrqhv28a.not-web-platform.test, DNS:xn--n8j6ds53lwwkrqhv28a.www1.web-platform.test, DNS:www2.xn--n8j6ds53lwwkrqhv28a.web-platform.test, DNS:xn--n8j6ds53lwwkrqhv28a.www2.web-platform.test, DNS:www1.xn--n8j6ds53lwwkrqhv28a.web-platform.test, DNS:xn--lve-6lad.xn--lve-6lad.not-web-platform.test, DNS:www.xn--n8j6ds53lwwkrqhv28a.not-web-platform.test, DNS:xn--n8j6ds53lwwkrqhv28a.www.not-web-platform.test, DNS:www1.xn--n8j6ds53lwwkrqhv28a.not-web-platform.test, DNS:www2.xn--n8j6ds53lwwkrqhv28a.not-web-platform.test, DNS:xn--n8j6ds53lwwkrqhv28a.www1.not-web-platform.test, DNS:xn--n8j6ds53lwwkrqhv28a.www2.not-web-platform.test, DNS:xn--lve-6lad.xn--n8j6ds53lwwkrqhv28a.web-platform.test, DNS:xn--n8j6ds53lwwkrqhv28a.xn--lve-6lad.web-platform.test, DNS:xn--n8j6ds53lwwkrqhv28a.xn--lve-6lad.not-web-platform.test, DNS:xn--lve-6lad.xn--n8j6ds53lwwkrqhv28a.not-web-platform.test, DNS:xn--n8j6ds53lwwkrqhv28a.xn--n8j6ds53lwwkrqhv28a.web-platform.test, DNS:xn--n8j6ds53lwwkrqhv28a.xn--n8j6ds53lwwkrqhv28a.not-web-platform.test
    Signature Algorithm: sha256WithRSAEncryption
         a7:2c:41:42:13:d2:c0:0a:e5:f4:84:9e:b9:47:50:ed:b4:a8:
         09:41:c8:8c:3b:cc:a9:03:9f:6d:f8:7b:d2:e5:d9:87:55:a1:
         7a:00:9b:2c:5a:3a:c7:46:4d:02:9b:16:10:02:4c:0d:a5:68:
         e2:79:07:21:a4:8e:42:51:ae:80:ab:f8:f8:34:5f:02:0b:72:
         66:18:3c:e3:da:98:f9:4c:70:19:5f:61:c2:49:9b:86:46:8c:
         5f:92:b4:3e:49:ef:d4:a7:f7:7c:0b:fc:b0:fb:7d:ec:73:5d:
         a9:5a:58:47:b8:11:60:1b:43:2c:47:da:15:9e:6c:db:35:cc:
         d8:f4:f4:99:11:94:e6:8e:bf:06:66:81:28:99:25:5e:e6:01:
         2b:16:c0:50:43:8a:12:04:c4:5d:6b:fa:8b:dd:ca:98:bc:7a:
         85:3a:c2:10:74:f2:e9:e6:b1:a7:bd:a7:d5:99:33:3b:15:e7:
         24:e4:d7:d8:9b:9d:84:60:e8:fd:17:4a:63:01:33:ad:30:e6:
         ec:b0:aa:7b:31:f2:83:3c:6e:d9:3b:7c:02:e6:64:a3:c2:ee:
         88:1c:4b:43:bc:de:0b:94:2a:cb:7e:1b:ba:10:01:01:e0:a7:
         d2:19:fd:1b:fe:43:df:0e:7b:e4:2f:25:12:99:b4:d5:c7:63:
         fa:d1:de:cf
-----BEGIN CERTIFICATE-----
MIIMsjCCC5qgAwIBAgIDBwlvMA0GCSqGSIb3DQEBCwUAMB0xGzAZBgNVBAMMEndl
Yi1wbGF0Zm9ybS10ZXN0czAeFw0yMzA1MTIwMDU3MzFaFw0yNDA1MTEwMDU3MzFa
MBwxGjAYBgNVBAMMEXdlYi1wbGF0Zm9ybS50ZXN0MIIBIjANBgkqhkiG9w0BAQEF
AAOCAQ8AMIIBCgKCAQEAtrJBhQr/G97/qSkm5/9kaXFs1Gm9f4G0YMnX4nT++ti7
bI+S/rbmh7Xc76re2tcknN38A6+PaibcXFmaxSpe8XnCgPOO4rMdVqD5vn5gMGi0
D6kJR/oYE6wH66HzdthT3sGis/lwnhiCEW54qWbLL9E3d6NQubGFZoXbKCkVpxfd
ETV1ArSdRnK7Zw8bmmGP5fvp9x8d+51ELYsNiAu36nwjzLBThoj3n7JFbjaFA18g
YU3dK2VhF6lP6q8YZY5ERVFavCC1sOiHtQYLLfh1FvEqdA4q9lUXKWKCDFheDWO0
8ngt/cVs+BRqAhojNzXVjQg8nzqswyhXrmtQ69wI4QIDAQABo4IJ+jCCCfYwCQYD
VR0TBAIwADAdBgNVHQ4EFgQUVeOJI/+0L5tZ1Li35A3CmmGGLaYwHwYDVR0jBBgw
FoAU8RJGm37g+OyY4/6OcUOGSSD4pOUwCwYDVR0PBAQDAgXgMBMGA1UdJQQMMAoG
CCsGAQUFBwMBMIIJhQYDVR0RBIIJfDCCCXiCEXdlYi1wbGF0Zm9ybS50ZXN0ghVu
b3Qtd2ViLXBsYXRmb3JtLnRlc3SCFXd3dy53ZWItcGxhdGZvcm0udGVzdIIWd3d3
MS53ZWItcGxhdGZvcm0udGVzdIIWd3d3Mi53ZWItcGxhdGZvcm0udGVzdIIZd3d3
Lm5vdC13ZWItcGxhdGZvcm0udGVzdIIZd3d3Lnd3dy53ZWItcGxhdGZvcm0udGVz
dIIad3d3Lnd3dzIud2ViLXBsYXRmb3JtLnRlc3SCGnd3dy53d3cxLndlYi1wbGF0
Zm9ybS50ZXN0ghp3d3cyLm5vdC13ZWItcGxhdGZvcm0udGVzdIIad3d3Mi53d3cu
d2ViLXBsYXRmb3JtLnRlc3SCGnd3dzEud3d3LndlYi1wbGF0Zm9ybS50ZXN0ghp3
d3cxLm5vdC13ZWItcGxhdGZvcm0udGVzdIIbd3d3MS53d3cyLndlYi1wbGF0Zm9y
bS50ZXN0ght3d3cxLnd3dzEud2ViLXBsYXRmb3JtLnRlc3SCG3d3dzIud3d3Mi53
ZWItcGxhdGZvcm0udGVzdIIbd3d3Mi53d3cxLndlYi1wbGF0Zm9ybS50ZXN0gh13
d3cud3d3Lm5vdC13ZWItcGxhdGZvcm0udGVzdIIed3d3Lnd3dzIubm90LXdlYi1w
bGF0Zm9ybS50ZXN0gh53d3cud3d3MS5ub3Qtd2ViLXBsYXRmb3JtLnRlc3SCHnd3
dzIud3d3Lm5vdC13ZWItcGxhdGZvcm0udGVzdIIed3d3MS53d3cubm90LXdlYi1w
bGF0Zm9ybS50ZXN0gh54bi0tbHZlLTZsYWQud2ViLXBsYXRmb3JtLnRlc3SCH3d3
dzEud3d3MS5ub3Qtd2ViLXBsYXRmb3JtLnRlc3SCH3d3dzEud3d3Mi5ub3Qtd2Vi
LXBsYXRmb3JtLnRlc3SCH3d3dzIud3d3Mi5ub3Qtd2ViLXBsYXRmb3JtLnRlc3SC
H3d3dzIud3d3MS5ub3Qtd2ViLXBsYXRmb3JtLnRlc3SCInhuLS1sdmUtNmxhZC53
d3cud2ViLXBsYXRmb3JtLnRlc3SCInhuLS1sdmUtNmxhZC5ub3Qtd2ViLXBsYXRm
b3JtLnRlc3SCInd3dy54bi0tbHZlLTZsYWQud2ViLXBsYXRmb3JtLnRlc3SCI3hu
LS1sdmUtNmxhZC53d3cyLndlYi1wbGF0Zm9ybS50ZXN0giN3d3cxLnhuLS1sdmUt
NmxhZC53ZWItcGxhdGZvcm0udGVzdIIjd3d3Mi54bi0tbHZlLTZsYWQud2ViLXBs
YXRmb3JtLnRlc3SCI3huLS1sdmUtNmxhZC53d3cxLndlYi1wbGF0Zm9ybS50ZXN0
giZ4bi0tbHZlLTZsYWQud3d3Lm5vdC13ZWItcGxhdGZvcm0udGVzdIImd3d3Lnhu
LS1sdmUtNmxhZC5ub3Qtd2ViLXBsYXRmb3JtLnRlc3SCJ3d3dzIueG4tLWx2ZS02
bGFkLm5vdC13ZWItcGxhdGZvcm0udGVzdIInd3d3MS54bi0tbHZlLTZsYWQubm90
LXdlYi1wbGF0Zm9ybS50ZXN0gid4bi0tbHZlLTZsYWQud3d3Mi5ub3Qtd2ViLXBs
YXRmb3JtLnRlc3SCJ3huLS1sdmUtNmxhZC53d3cxLm5vdC13ZWItcGxhdGZvcm0u
dGVzdIIpeG4tLW44ajZkczUzbHd3a3JxaHYyOGEud2ViLXBsYXRmb3JtLnRlc3SC
K3huLS1sdmUtNmxhZC54bi0tbHZlLTZsYWQud2ViLXBsYXRmb3JtLnRlc3SCLXhu
LS1uOGo2ZHM1M2x3d2tycWh2MjhhLnd3dy53ZWItcGxhdGZvcm0udGVzdIItd3d3
LnhuLS1uOGo2ZHM1M2x3d2tycWh2MjhhLndlYi1wbGF0Zm9ybS50ZXN0gi14bi0t
bjhqNmRzNTNsd3drcnFodjI4YS5ub3Qtd2ViLXBsYXRmb3JtLnRlc3SCLnhuLS1u
OGo2ZHM1M2x3d2tycWh2MjhhLnd3dzEud2ViLXBsYXRmb3JtLnRlc3SCLnd3dzIu
eG4tLW44ajZkczUzbHd3a3JxaHYyOGEud2ViLXBsYXRmb3JtLnRlc3SCLnhuLS1u
OGo2ZHM1M2x3d2tycWh2MjhhLnd3dzIud2ViLXBsYXRmb3JtLnRlc3SCLnd3dzEu
eG4tLW44ajZkczUzbHd3a3JxaHYyOGEud2ViLXBsYXRmb3JtLnRlc3SCL3huLS1s
dmUtNmxhZC54bi0tbHZlLTZsYWQubm90LXdlYi1wbGF0Zm9ybS50ZXN0gjF3d3cu
eG4tLW44ajZkczUzbHd3a3JxaHYyOGEubm90LXdlYi1wbGF0Zm9ybS50ZXN0gjF4
bi0tbjhqNmRzNTNsd3drcnFodjI4YS53d3cubm90LXdlYi1wbGF0Zm9ybS50ZXN0
gjJ3d3cxLnhuLS1uOGo2ZHM1M2x3d2tycWh2MjhhLm5vdC13ZWItcGxhdGZvcm0u
dGVzdIIyd3d3Mi54bi0tbjhqNmRzNTNsd3drcnFodjI4YS5ub3Qtd2ViLXBsYXRm
b3JtLnRlc3SCMnhuLS1uOGo2ZHM1M2x3d2tycWh2MjhhLnd3dzEubm90LXdlYi1w
bGF0Zm9ybS50ZXN0gjJ4bi0tbjhqNmRzNTNsd3drcnFodjI4YS53d3cyLm5vdC13
ZWItcGxhdGZvcm0udGVzdII2eG4tLWx2ZS02bGFkLnhuLS1uOGo2ZHM1M2x3d2ty
cWh2MjhhLndlYi1wbGF0Zm9ybS50ZXN0gjZ4bi0tbjhqNmRzNTNsd3drcnFodjI4
YS54bi0tbHZlLTZsYWQud2ViLXBsYXRmb3JtLnRlc3SCOnhuLS1uOGo2ZHM1M2x3
d2tycWh2MjhhLnhuLS1sdmUtNmxhZC5ub3Qtd2ViLXBsYXRmb3JtLnRlc3SCOnhu
LS1sdmUtNmxhZC54bi0tbjhqNmRzNTNsd3drcnFodjI4YS5ub3Qtd2ViLXBsYXRm
b3JtLnRlc3SCQXhuLS1uOGo2ZHM1M2x3d2tycWh2MjhhLnhuLS1uOGo2ZHM1M2x3
d2tycWh2MjhhLndlYi1wbGF0Zm9ybS50ZXN0gkV4bi0tbjhqNmRzNTNsd3drcnFo
djI4YS54bi0tbjhqNmRzNTNsd3drcnFodjI4YS5ub3Qtd2ViLXBsYXRmb3JtLnRl
c3QwDQYJKoZIhvcNAQELBQADggEBAKcsQUIT0sAK5fSEnrlHUO20qAlByIw7zKkD
n234e9Ll2YdVoXoAmyxaOsdGTQKbFhACTA2laOJ5ByGkjkJRroCr+Pg0XwILcmYY
POPamPlMcBlfYcJJm4ZGjF+StD5J79Sn93wL/LD7fexzXalaWEe4EWAbQyxH2hWe
bNs1zNj09JkRlOaOvwZmgSiZJV7mASsWwFBDihIExF1r+ovdypi8eoU6whB08unm
sae9p9WZMzsV5yTk19ibnYRg6P0XSmMBM60w5uywqnsx8oM8btk7fALmZKPC7ogc
S0O83guUKst+G7oQAQHgp9IZ/Rv+Q98Oe+QvJRKZtNXHY/rR3s8=
-----END CERTIFICATE-----
