Certificate:
    Data:
        Version: 3 (0x2)
        Serial Number: 394093 (0x6036d)
        Signature Algorithm: sha256WithRSAEncryption
        Issuer: CN=web-platform-tests
        Validity
            Not Before: Jul 12 01:23:56 2025 GMT
            Not After : Jul 12 01:23:56 2026 GMT
        Subject: CN=web-platform.test
        Subject Public Key Info:
            Public Key Algorithm: rsaEncryption
                Public-Key: (2048 bit)
                Modulus:
                    00:ab:65:f4:63:e3:d3:73:2f:ac:53:7d:38:a6:85:
                    ef:16:20:12:26:74:63:8e:1b:02:f2:b9:81:20:a3:
                    fb:07:b6:d9:b1:e7:43:d6:32:0f:b2:77:6c:bc:30:
                    23:d2:41:2e:50:c0:71:ed:08:99:e3:90:8f:e8:8b:
                    ed:25:a9:b4:31:e8:41:22:5f:d8:ec:59:5a:34:48:
                    47:49:67:e5:8c:46:d6:e8:a7:bf:29:01:9a:11:69:
                    3c:d3:f6:f8:cc:5e:e7:65:31:17:29:44:34:58:dc:
                    c3:72:5b:ed:52:dd:48:74:24:a4:86:aa:6b:02:df:
                    d8:ed:b9:3d:a7:3e:48:0d:99:40:4a:11:e8:e2:c8:
                    4e:19:ce:39:77:fe:7d:9e:ce:cf:b3:d0:af:74:59:
                    f5:c2:c1:f3:18:46:ba:00:89:59:54:a4:8b:c0:1d:
                    0d:db:d3:21:1f:e9:bf:1b:29:ae:e9:63:ea:5a:19:
                    87:ed:49:ad:55:de:31:e8:54:e7:a1:d4:10:b5:89:
                    91:36:86:72:ba:ca:d3:13:2a:74:e0:35:64:78:a7:
                    2f:fb:d9:c3:88:d4:9c:8f:e8:83:36:2a:bc:de:30:
                    2c:f7:da:ef:22:52:3f:a1:1a:28:08:1a:89:00:12:
                    af:98:8d:4a:b6:84:0a:42:fe:ee:e6:7f:07:39:f5:
                    2e:67
                Exponent: 65537 (0x10001)
        X509v3 extensions:
            X509v3 Basic Constraints: 
                CA:FALSE
            X509v3 Subject Key Identifier: 
                BE:66:12:D0:70:D8:F8:1D:38:32:3D:A8:0F:0C:50:F3:CC:F0:94:5F
            X509v3 Authority Key Identifier: 
                40:11:85:99:42:5D:AA:E8:D9:FA:A7:D5:50:E2:21:9C:2B:78:B5:F5
            X509v3 Key Usage: 
                Digital Signature, Non Repudiation, Key Encipherment
            X509v3 Extended Key Usage: 
                TLS Web Server Authentication
            X509v3 Subject Alternative Name: 
                DNS:web-platform.test, DNS:not-web-platform.test, DNS:www.web-platform.test, DNS:www2.web-platform.test, DNS:www1.web-platform.test, DNS:www.www.web-platform.test, DNS:www.not-web-platform.test, DNS:www2.not-web-platform.test, DNS:www.www2.web-platform.test, DNS:www.www1.web-platform.test, DNS:www2.www.web-platform.test, DNS:www1.not-web-platform.test, DNS:www1.www.web-platform.test, DNS:www2.www1.web-platform.test, DNS:www2.www2.web-platform.test, DNS:www1.www1.web-platform.test, DNS:www1.www2.web-platform.test, DNS:www.www.not-web-platform.test, DNS:www.www2.not-web-platform.test, DNS:www1.www.not-web-platform.test, DNS:www2.www.not-web-platform.test, DNS:xn--lve-6lad.web-platform.test, DNS:www.www1.not-web-platform.test, DNS:www2.www2.not-web-platform.test, DNS:www2.www1.not-web-platform.test, DNS:www1.www1.not-web-platform.test, DNS:www1.www2.not-web-platform.test, DNS:www.xn--lve-6lad.web-platform.test, DNS:xn--lve-6lad.not-web-platform.test, DNS:xn--lve-6lad.www.web-platform.test, DNS:www1.xn--lve-6lad.web-platform.test, DNS:www2.xn--lve-6lad.web-platform.test, DNS:xn--lve-6lad.www2.web-platform.test, DNS:xn--lve-6lad.www1.web-platform.test, DNS:www.xn--lve-6lad.not-web-platform.test, DNS:xn--lve-6lad.www.not-web-platform.test, DNS:xn--lve-6lad.www1.not-web-platform.test, DNS:www2.xn--lve-6lad.not-web-platform.test, DNS:xn--lve-6lad.www2.not-web-platform.test, DNS:www1.xn--lve-6lad.not-web-platform.test, DNS:xn--n8j6ds53lwwkrqhv28a.web-platform.test, DNS:xn--lve-6lad.xn--lve-6lad.web-platform.test, DNS:xn--n8j6ds53lwwkrqhv28a.www.web-platform.test, DNS:xn--n8j6ds53lwwkrqhv28a.not-web-platform.test, DNS:www.xn--n8j6ds53lwwkrqhv28a.web-platform.test, DNS:www1.xn--n8j6ds53lwwkrqhv28a.web-platform.test, DNS:xn--n8j6ds53lwwkrqhv28a.www1.web-platform.test, DNS:www2.xn--n8j6ds53lwwkrqhv28a.web-platform.test, DNS:xn--n8j6ds53lwwkrqhv28a.www2.web-platform.test, DNS:xn--lve-6lad.xn--lve-6lad.not-web-platform.test, DNS:xn--n8j6ds53lwwkrqhv28a.www.not-web-platform.test, DNS:www.xn--n8j6ds53lwwkrqhv28a.not-web-platform.test, DNS:xn--n8j6ds53lwwkrqhv28a.www1.not-web-platform.test, DNS:xn--n8j6ds53lwwkrqhv28a.www2.not-web-platform.test, DNS:www2.xn--n8j6ds53lwwkrqhv28a.not-web-platform.test, DNS:www1.xn--n8j6ds53lwwkrqhv28a.not-web-platform.test, DNS:xn--n8j6ds53lwwkrqhv28a.xn--lve-6lad.web-platform.test, DNS:xn--lve-6lad.xn--n8j6ds53lwwkrqhv28a.web-platform.test, DNS:xn--n8j6ds53lwwkrqhv28a.xn--lve-6lad.not-web-platform.test, DNS:xn--lve-6lad.xn--n8j6ds53lwwkrqhv28a.not-web-platform.test, DNS:xn--n8j6ds53lwwkrqhv28a.xn--n8j6ds53lwwkrqhv28a.web-platform.test, DNS:xn--n8j6ds53lwwkrqhv28a.xn--n8j6ds53lwwkrqhv28a.not-web-platform.test
    Signature Algorithm: sha256WithRSAEncryption
    Signature Value:
        e0:79:6c:12:03:b2:d2:99:6f:ad:e9:bb:7b:ee:c0:d7:86:eb:
        29:58:93:0c:65:a9:32:00:f1:f2:cd:7f:b7:bf:9f:b0:87:2d:
        6b:0c:45:83:12:fa:92:12:9d:15:af:60:b4:8f:ce:d6:28:3a:
        3c:b3:70:56:dd:be:90:38:1b:83:98:d0:c1:c5:9c:32:4e:11:
        44:87:8c:18:36:d1:c5:80:33:ff:99:34:2f:b4:a7:66:4c:82:
        dc:84:b8:55:e4:7f:87:83:16:db:4c:3c:9c:45:3f:dd:49:0a:
        3c:86:f1:1f:98:7f:00:47:91:84:fc:11:86:9d:8e:25:12:99:
        ad:88:2f:b5:75:a4:d7:cc:c2:d3:cf:3c:09:23:1d:89:f9:16:
        7f:1d:7c:b2:d3:21:b2:b1:df:21:6c:11:55:a9:96:92:78:80:
        70:a4:1a:97:a7:b5:76:f3:e5:a6:b6:6a:e4:7e:9a:c4:05:33:
        db:a0:3f:22:ef:1d:cc:b6:07:de:47:c5:f8:79:12:98:86:c7:
        68:c4:e0:d8:45:27:e4:b9:c9:19:6c:1b:cf:ee:0c:0f:7a:a7:
        9f:6a:43:e2:c4:1a:81:39:3f:3a:e7:85:ea:8d:e5:6b:3f:57:
        02:50:4e:a3:2d:71:4f:c3:f4:6c:fd:ad:b6:71:3a:ed:f5:db:
        67:98:7a:3f
-----BEGIN CERTIFICATE-----
MIIMsjCCC5qgAwIBAgIDBgNtMA0GCSqGSIb3DQEBCwUAMB0xGzAZBgNVBAMMEndl
Yi1wbGF0Zm9ybS10ZXN0czAeFw0yNTA3MTIwMTIzNTZaFw0yNjA3MTIwMTIzNTZa
MBwxGjAYBgNVBAMMEXdlYi1wbGF0Zm9ybS50ZXN0MIIBIjANBgkqhkiG9w0BAQEF
AAOCAQ8AMIIBCgKCAQEAq2X0Y+PTcy+sU304poXvFiASJnRjjhsC8rmBIKP7B7bZ
sedD1jIPsndsvDAj0kEuUMBx7QiZ45CP6IvtJam0MehBIl/Y7FlaNEhHSWfljEbW
6Ke/KQGaEWk80/b4zF7nZTEXKUQ0WNzDclvtUt1IdCSkhqprAt/Y7bk9pz5IDZlA
ShHo4shOGc45d/59ns7Ps9CvdFn1wsHzGEa6AIlZVKSLwB0N29MhH+m/Gymu6WPq
WhmH7UmtVd4x6FTnodQQtYmRNoZyusrTEyp04DVkeKcv+9nDiNScj+iDNiq83jAs
99rvIlI/oRooCBqJABKvmI1KtoQKQv7u5n8HOfUuZwIDAQABo4IJ+jCCCfYwCQYD
VR0TBAIwADAdBgNVHQ4EFgQUvmYS0HDY+B04Mj2oDwxQ88zwlF8wHwYDVR0jBBgw
FoAUQBGFmUJdqujZ+qfVUOIhnCt4tfUwCwYDVR0PBAQDAgXgMBMGA1UdJQQMMAoG
CCsGAQUFBwMBMIIJhQYDVR0RBIIJfDCCCXiCEXdlYi1wbGF0Zm9ybS50ZXN0ghVu
b3Qtd2ViLXBsYXRmb3JtLnRlc3SCFXd3dy53ZWItcGxhdGZvcm0udGVzdIIWd3d3
Mi53ZWItcGxhdGZvcm0udGVzdIIWd3d3MS53ZWItcGxhdGZvcm0udGVzdIIZd3d3
Lnd3dy53ZWItcGxhdGZvcm0udGVzdIIZd3d3Lm5vdC13ZWItcGxhdGZvcm0udGVz
dIIad3d3Mi5ub3Qtd2ViLXBsYXRmb3JtLnRlc3SCGnd3dy53d3cyLndlYi1wbGF0
Zm9ybS50ZXN0ghp3d3cud3d3MS53ZWItcGxhdGZvcm0udGVzdIIad3d3Mi53d3cu
d2ViLXBsYXRmb3JtLnRlc3SCGnd3dzEubm90LXdlYi1wbGF0Zm9ybS50ZXN0ghp3
d3cxLnd3dy53ZWItcGxhdGZvcm0udGVzdIIbd3d3Mi53d3cxLndlYi1wbGF0Zm9y
bS50ZXN0ght3d3cyLnd3dzIud2ViLXBsYXRmb3JtLnRlc3SCG3d3dzEud3d3MS53
ZWItcGxhdGZvcm0udGVzdIIbd3d3MS53d3cyLndlYi1wbGF0Zm9ybS50ZXN0gh13
d3cud3d3Lm5vdC13ZWItcGxhdGZvcm0udGVzdIIed3d3Lnd3dzIubm90LXdlYi1w
bGF0Zm9ybS50ZXN0gh53d3cxLnd3dy5ub3Qtd2ViLXBsYXRmb3JtLnRlc3SCHnd3
dzIud3d3Lm5vdC13ZWItcGxhdGZvcm0udGVzdIIeeG4tLWx2ZS02bGFkLndlYi1w
bGF0Zm9ybS50ZXN0gh53d3cud3d3MS5ub3Qtd2ViLXBsYXRmb3JtLnRlc3SCH3d3
dzIud3d3Mi5ub3Qtd2ViLXBsYXRmb3JtLnRlc3SCH3d3dzIud3d3MS5ub3Qtd2Vi
LXBsYXRmb3JtLnRlc3SCH3d3dzEud3d3MS5ub3Qtd2ViLXBsYXRmb3JtLnRlc3SC
H3d3dzEud3d3Mi5ub3Qtd2ViLXBsYXRmb3JtLnRlc3SCInd3dy54bi0tbHZlLTZs
YWQud2ViLXBsYXRmb3JtLnRlc3SCInhuLS1sdmUtNmxhZC5ub3Qtd2ViLXBsYXRm
b3JtLnRlc3SCInhuLS1sdmUtNmxhZC53d3cud2ViLXBsYXRmb3JtLnRlc3SCI3d3
dzEueG4tLWx2ZS02bGFkLndlYi1wbGF0Zm9ybS50ZXN0giN3d3cyLnhuLS1sdmUt
NmxhZC53ZWItcGxhdGZvcm0udGVzdIIjeG4tLWx2ZS02bGFkLnd3dzIud2ViLXBs
YXRmb3JtLnRlc3SCI3huLS1sdmUtNmxhZC53d3cxLndlYi1wbGF0Zm9ybS50ZXN0
giZ3d3cueG4tLWx2ZS02bGFkLm5vdC13ZWItcGxhdGZvcm0udGVzdIImeG4tLWx2
ZS02bGFkLnd3dy5ub3Qtd2ViLXBsYXRmb3JtLnRlc3SCJ3huLS1sdmUtNmxhZC53
d3cxLm5vdC13ZWItcGxhdGZvcm0udGVzdIInd3d3Mi54bi0tbHZlLTZsYWQubm90
LXdlYi1wbGF0Zm9ybS50ZXN0gid4bi0tbHZlLTZsYWQud3d3Mi5ub3Qtd2ViLXBs
YXRmb3JtLnRlc3SCJ3d3dzEueG4tLWx2ZS02bGFkLm5vdC13ZWItcGxhdGZvcm0u
dGVzdIIpeG4tLW44ajZkczUzbHd3a3JxaHYyOGEud2ViLXBsYXRmb3JtLnRlc3SC
K3huLS1sdmUtNmxhZC54bi0tbHZlLTZsYWQud2ViLXBsYXRmb3JtLnRlc3SCLXhu
LS1uOGo2ZHM1M2x3d2tycWh2MjhhLnd3dy53ZWItcGxhdGZvcm0udGVzdIIteG4t
LW44ajZkczUzbHd3a3JxaHYyOGEubm90LXdlYi1wbGF0Zm9ybS50ZXN0gi13d3cu
eG4tLW44ajZkczUzbHd3a3JxaHYyOGEud2ViLXBsYXRmb3JtLnRlc3SCLnd3dzEu
eG4tLW44ajZkczUzbHd3a3JxaHYyOGEud2ViLXBsYXRmb3JtLnRlc3SCLnhuLS1u
OGo2ZHM1M2x3d2tycWh2MjhhLnd3dzEud2ViLXBsYXRmb3JtLnRlc3SCLnd3dzIu
eG4tLW44ajZkczUzbHd3a3JxaHYyOGEud2ViLXBsYXRmb3JtLnRlc3SCLnhuLS1u
OGo2ZHM1M2x3d2tycWh2MjhhLnd3dzIud2ViLXBsYXRmb3JtLnRlc3SCL3huLS1s
dmUtNmxhZC54bi0tbHZlLTZsYWQubm90LXdlYi1wbGF0Zm9ybS50ZXN0gjF4bi0t
bjhqNmRzNTNsd3drcnFodjI4YS53d3cubm90LXdlYi1wbGF0Zm9ybS50ZXN0gjF3
d3cueG4tLW44ajZkczUzbHd3a3JxaHYyOGEubm90LXdlYi1wbGF0Zm9ybS50ZXN0
gjJ4bi0tbjhqNmRzNTNsd3drcnFodjI4YS53d3cxLm5vdC13ZWItcGxhdGZvcm0u
dGVzdIIyeG4tLW44ajZkczUzbHd3a3JxaHYyOGEud3d3Mi5ub3Qtd2ViLXBsYXRm
b3JtLnRlc3SCMnd3dzIueG4tLW44ajZkczUzbHd3a3JxaHYyOGEubm90LXdlYi1w
bGF0Zm9ybS50ZXN0gjJ3d3cxLnhuLS1uOGo2ZHM1M2x3d2tycWh2MjhhLm5vdC13
ZWItcGxhdGZvcm0udGVzdII2eG4tLW44ajZkczUzbHd3a3JxaHYyOGEueG4tLWx2
ZS02bGFkLndlYi1wbGF0Zm9ybS50ZXN0gjZ4bi0tbHZlLTZsYWQueG4tLW44ajZk
czUzbHd3a3JxaHYyOGEud2ViLXBsYXRmb3JtLnRlc3SCOnhuLS1uOGo2ZHM1M2x3
d2tycWh2MjhhLnhuLS1sdmUtNmxhZC5ub3Qtd2ViLXBsYXRmb3JtLnRlc3SCOnhu
LS1sdmUtNmxhZC54bi0tbjhqNmRzNTNsd3drcnFodjI4YS5ub3Qtd2ViLXBsYXRm
b3JtLnRlc3SCQXhuLS1uOGo2ZHM1M2x3d2tycWh2MjhhLnhuLS1uOGo2ZHM1M2x3
d2tycWh2MjhhLndlYi1wbGF0Zm9ybS50ZXN0gkV4bi0tbjhqNmRzNTNsd3drcnFo
djI4YS54bi0tbjhqNmRzNTNsd3drcnFodjI4YS5ub3Qtd2ViLXBsYXRmb3JtLnRl
c3QwDQYJKoZIhvcNAQELBQADggEBAOB5bBIDstKZb63pu3vuwNeG6ylYkwxlqTIA
8fLNf7e/n7CHLWsMRYMS+pISnRWvYLSPztYoOjyzcFbdvpA4G4OY0MHFnDJOEUSH
jBg20cWAM/+ZNC+0p2ZMgtyEuFXkf4eDFttMPJxFP91JCjyG8R+YfwBHkYT8EYad
jiUSma2IL7V1pNfMwtPPPAkjHYn5Fn8dfLLTIbKx3yFsEVWplpJ4gHCkGpentXbz
5aa2auR+msQFM9ugPyLvHcy2B95Hxfh5EpiGx2jE4NhFJ+S5yRlsG8/uDA96p59q
Q+LEGoE5PzrnheqN5Ws/VwJQTqMtcU/D9Gz9rbZxOu3122eYej8=
-----END CERTIFICATE-----
