Certificate:
    Data:
        Version: 3 (0x2)
        Serial Number: 408802 (0x63ce2)
        Signature Algorithm: sha256WithRSAEncryption
        Issuer: CN=web-platform-tests
        Validity
            Not Before: Aug 12 01:01:36 2024 GMT
            Not After : Aug 12 01:01:36 2025 GMT
        Subject: CN=web-platform.test
        Subject Public Key Info:
            Public Key Algorithm: rsaEncryption
                RSA Public-Key: (2048 bit)
                Modulus:
                    00:a9:59:9e:27:f6:69:14:84:1a:24:4e:e1:b7:95:
                    57:6e:2f:87:59:94:3c:5b:d3:3b:60:c1:22:c3:9e:
                    b0:22:07:bd:46:33:1a:ad:72:91:e5:4f:f0:b8:ae:
                    02:95:ca:da:94:6b:bd:e9:f6:22:08:bb:75:aa:70:
                    89:10:05:a2:79:3f:00:ac:1f:ae:b9:07:74:b0:36:
                    e1:d8:5a:58:2e:01:cf:9e:d9:fe:0f:92:10:7c:a8:
                    78:56:41:a4:8e:e7:46:13:fc:5e:8d:35:aa:1c:f8:
                    9b:58:c7:e3:de:53:26:3c:d4:64:67:10:be:5f:0a:
                    42:6c:b8:4d:15:a7:b8:22:09:bf:7d:38:51:92:07:
                    63:a9:5c:1e:0b:5a:03:c9:e4:22:cc:5b:5a:ad:ed:
                    2d:1e:ef:c1:80:ba:42:4b:b4:4e:1a:31:9a:8b:21:
                    5c:64:36:0c:09:00:b6:17:0d:7d:cd:25:f6:3c:3f:
                    83:d2:78:eb:8c:bb:8b:c7:50:24:8d:04:27:64:87:
                    01:61:e4:9e:e4:92:ab:97:36:2f:1b:ec:2f:59:d7:
                    31:aa:9c:08:a9:e6:87:47:91:7f:8e:3b:26:bf:cc:
                    92:7b:88:df:74:3d:69:34:db:fb:da:b6:54:6a:2b:
                    42:92:45:43:a4:36:87:ab:01:03:23:b8:33:a8:67:
                    b8:d1
                Exponent: 65537 (0x10001)
        X509v3 extensions:
            X509v3 Basic Constraints: 
                CA:FALSE
            X509v3 Subject Key Identifier: 
                66:7B:1B:9E:50:93:B0:87:2A:3D:B8:C9:9B:36:97:2C:D4:41:5C:08
            X509v3 Authority Key Identifier: 
                keyid:F8:49:74:07:1B:4F:1A:59:79:31:26:F8:C4:AB:D5:6F:7E:50:B1:D2

            X509v3 Key Usage: 
                Digital Signature, Non Repudiation, Key Encipherment
            X509v3 Extended Key Usage: 
                TLS Web Server Authentication
            X509v3 Subject Alternative Name: 
                DNS:web-platform.test, DNS:www.web-platform.test, DNS:not-web-platform.test, DNS:www2.web-platform.test, DNS:www1.web-platform.test, DNS:www.not-web-platform.test, DNS:www.www.web-platform.test, DNS:www.www2.web-platform.test, DNS:www1.not-web-platform.test, DNS:www2.www.web-platform.test, DNS:www.www1.web-platform.test, DNS:www2.not-web-platform.test, DNS:www1.www.web-platform.test, DNS:www1.www1.web-platform.test, DNS:www2.www1.web-platform.test, DNS:www2.www2.web-platform.test, DNS:www1.www2.web-platform.test, DNS:www.www.not-web-platform.test, DNS:www.www2.not-web-platform.test, DNS:www1.www.not-web-platform.test, DNS:xn--lve-6lad.web-platform.test, DNS:www.www1.not-web-platform.test, DNS:www2.www.not-web-platform.test, DNS:www2.www1.not-web-platform.test, DNS:www1.www1.not-web-platform.test, DNS:www2.www2.not-web-platform.test, DNS:www1.www2.not-web-platform.test, DNS:www.xn--lve-6lad.web-platform.test, DNS:xn--lve-6lad.www.web-platform.test, DNS:xn--lve-6lad.not-web-platform.test, DNS:xn--lve-6lad.www2.web-platform.test, DNS:www2.xn--lve-6lad.web-platform.test, DNS:www1.xn--lve-6lad.web-platform.test, DNS:xn--lve-6lad.www1.web-platform.test, DNS:www.xn--lve-6lad.not-web-platform.test, DNS:xn--lve-6lad.www.not-web-platform.test, DNS:www2.xn--lve-6lad.not-web-platform.test, DNS:xn--lve-6lad.www2.not-web-platform.test, DNS:xn--lve-6lad.www1.not-web-platform.test, DNS:www1.xn--lve-6lad.not-web-platform.test, DNS:xn--n8j6ds53lwwkrqhv28a.web-platform.test, DNS:xn--lve-6lad.xn--lve-6lad.web-platform.test, DNS:xn--n8j6ds53lwwkrqhv28a.not-web-platform.test, DNS:xn--n8j6ds53lwwkrqhv28a.www.web-platform.test, DNS:www.xn--n8j6ds53lwwkrqhv28a.web-platform.test, DNS:xn--n8j6ds53lwwkrqhv28a.www2.web-platform.test, DNS:www2.xn--n8j6ds53lwwkrqhv28a.web-platform.test, DNS:www1.xn--n8j6ds53lwwkrqhv28a.web-platform.test, DNS:xn--n8j6ds53lwwkrqhv28a.www1.web-platform.test, DNS:xn--lve-6lad.xn--lve-6lad.not-web-platform.test, DNS:www.xn--n8j6ds53lwwkrqhv28a.not-web-platform.test, DNS:xn--n8j6ds53lwwkrqhv28a.www.not-web-platform.test, DNS:www2.xn--n8j6ds53lwwkrqhv28a.not-web-platform.test, DNS:www1.xn--n8j6ds53lwwkrqhv28a.not-web-platform.test, DNS:xn--n8j6ds53lwwkrqhv28a.www2.not-web-platform.test, DNS:xn--n8j6ds53lwwkrqhv28a.www1.not-web-platform.test, DNS:xn--lve-6lad.xn--n8j6ds53lwwkrqhv28a.web-platform.test, DNS:xn--n8j6ds53lwwkrqhv28a.xn--lve-6lad.web-platform.test, DNS:xn--n8j6ds53lwwkrqhv28a.xn--lve-6lad.not-web-platform.test, DNS:xn--lve-6lad.xn--n8j6ds53lwwkrqhv28a.not-web-platform.test, DNS:xn--n8j6ds53lwwkrqhv28a.xn--n8j6ds53lwwkrqhv28a.web-platform.test, DNS:xn--n8j6ds53lwwkrqhv28a.xn--n8j6ds53lwwkrqhv28a.not-web-platform.test
    Signature Algorithm: sha256WithRSAEncryption
         1f:db:5d:ea:4c:6f:5a:5b:27:70:8e:e1:37:e5:71:cc:0b:67:
         65:49:f9:e7:30:0d:d2:3b:c8:a0:b5:63:42:77:3c:10:f2:79:
         2b:0e:46:04:95:3e:57:46:73:62:46:28:5b:6d:f8:c8:50:2f:
         23:d3:2a:aa:2f:f7:1f:b1:2e:d4:07:6f:56:f8:ab:90:f1:a5:
         4b:10:a4:c7:77:72:68:a3:3e:6d:c3:0e:a1:5c:98:a9:65:83:
         87:ef:a5:6d:7d:ed:d9:18:30:fb:49:87:b0:99:01:32:ad:88:
         02:61:9d:ac:7f:b4:c3:34:bc:9a:83:e3:ef:8d:dc:3b:cc:18:
         58:a3:69:fd:cf:fb:81:48:24:82:8e:01:92:1f:a4:95:79:3c:
         2a:bc:5b:c3:7a:02:6d:7f:8b:1f:2b:4a:95:da:50:9b:d5:d3:
         3c:4d:eb:6c:1f:8d:52:65:8a:c3:3c:77:7b:9a:63:f2:5c:71:
         ab:77:c1:65:28:80:a6:eb:22:99:a8:95:14:4b:63:c9:77:8e:
         75:a3:7b:0f:9b:66:47:74:68:10:0a:aa:4b:3c:55:b1:59:8d:
         0f:24:7b:3b:93:ed:30:69:cd:08:f9:c5:90:34:fc:21:8c:cb:
         9b:8b:ef:5e:4e:d3:a1:86:3b:e9:7d:1c:79:aa:a2:3e:df:b8:
         09:09:01:82
-----BEGIN CERTIFICATE-----
MIIMsjCCC5qgAwIBAgIDBjziMA0GCSqGSIb3DQEBCwUAMB0xGzAZBgNVBAMMEndl
Yi1wbGF0Zm9ybS10ZXN0czAeFw0yNDA4MTIwMTAxMzZaFw0yNTA4MTIwMTAxMzZa
MBwxGjAYBgNVBAMMEXdlYi1wbGF0Zm9ybS50ZXN0MIIBIjANBgkqhkiG9w0BAQEF
AAOCAQ8AMIIBCgKCAQEAqVmeJ/ZpFIQaJE7ht5VXbi+HWZQ8W9M7YMEiw56wIge9
RjMarXKR5U/wuK4ClcralGu96fYiCLt1qnCJEAWieT8ArB+uuQd0sDbh2FpYLgHP
ntn+D5IQfKh4VkGkjudGE/xejTWqHPibWMfj3lMmPNRkZxC+XwpCbLhNFae4Igm/
fThRkgdjqVweC1oDyeQizFtare0tHu/BgLpCS7ROGjGaiyFcZDYMCQC2Fw19zSX2
PD+D0njrjLuLx1AkjQQnZIcBYeSe5JKrlzYvG+wvWdcxqpwIqeaHR5F/jjsmv8yS
e4jfdD1pNNv72rZUaitCkkVDpDaHqwEDI7gzqGe40QIDAQABo4IJ+jCCCfYwCQYD
VR0TBAIwADAdBgNVHQ4EFgQUZnsbnlCTsIcqPbjJmzaXLNRBXAgwHwYDVR0jBBgw
FoAU+El0BxtPGll5MSb4xKvVb35QsdIwCwYDVR0PBAQDAgXgMBMGA1UdJQQMMAoG
CCsGAQUFBwMBMIIJhQYDVR0RBIIJfDCCCXiCEXdlYi1wbGF0Zm9ybS50ZXN0ghV3
d3cud2ViLXBsYXRmb3JtLnRlc3SCFW5vdC13ZWItcGxhdGZvcm0udGVzdIIWd3d3
Mi53ZWItcGxhdGZvcm0udGVzdIIWd3d3MS53ZWItcGxhdGZvcm0udGVzdIIZd3d3
Lm5vdC13ZWItcGxhdGZvcm0udGVzdIIZd3d3Lnd3dy53ZWItcGxhdGZvcm0udGVz
dIIad3d3Lnd3dzIud2ViLXBsYXRmb3JtLnRlc3SCGnd3dzEubm90LXdlYi1wbGF0
Zm9ybS50ZXN0ghp3d3cyLnd3dy53ZWItcGxhdGZvcm0udGVzdIIad3d3Lnd3dzEu
d2ViLXBsYXRmb3JtLnRlc3SCGnd3dzIubm90LXdlYi1wbGF0Zm9ybS50ZXN0ghp3
d3cxLnd3dy53ZWItcGxhdGZvcm0udGVzdIIbd3d3MS53d3cxLndlYi1wbGF0Zm9y
bS50ZXN0ght3d3cyLnd3dzEud2ViLXBsYXRmb3JtLnRlc3SCG3d3dzIud3d3Mi53
ZWItcGxhdGZvcm0udGVzdIIbd3d3MS53d3cyLndlYi1wbGF0Zm9ybS50ZXN0gh13
d3cud3d3Lm5vdC13ZWItcGxhdGZvcm0udGVzdIIed3d3Lnd3dzIubm90LXdlYi1w
bGF0Zm9ybS50ZXN0gh53d3cxLnd3dy5ub3Qtd2ViLXBsYXRmb3JtLnRlc3SCHnhu
LS1sdmUtNmxhZC53ZWItcGxhdGZvcm0udGVzdIIed3d3Lnd3dzEubm90LXdlYi1w
bGF0Zm9ybS50ZXN0gh53d3cyLnd3dy5ub3Qtd2ViLXBsYXRmb3JtLnRlc3SCH3d3
dzIud3d3MS5ub3Qtd2ViLXBsYXRmb3JtLnRlc3SCH3d3dzEud3d3MS5ub3Qtd2Vi
LXBsYXRmb3JtLnRlc3SCH3d3dzIud3d3Mi5ub3Qtd2ViLXBsYXRmb3JtLnRlc3SC
H3d3dzEud3d3Mi5ub3Qtd2ViLXBsYXRmb3JtLnRlc3SCInd3dy54bi0tbHZlLTZs
YWQud2ViLXBsYXRmb3JtLnRlc3SCInhuLS1sdmUtNmxhZC53d3cud2ViLXBsYXRm
b3JtLnRlc3SCInhuLS1sdmUtNmxhZC5ub3Qtd2ViLXBsYXRmb3JtLnRlc3SCI3hu
LS1sdmUtNmxhZC53d3cyLndlYi1wbGF0Zm9ybS50ZXN0giN3d3cyLnhuLS1sdmUt
NmxhZC53ZWItcGxhdGZvcm0udGVzdIIjd3d3MS54bi0tbHZlLTZsYWQud2ViLXBs
YXRmb3JtLnRlc3SCI3huLS1sdmUtNmxhZC53d3cxLndlYi1wbGF0Zm9ybS50ZXN0
giZ3d3cueG4tLWx2ZS02bGFkLm5vdC13ZWItcGxhdGZvcm0udGVzdIImeG4tLWx2
ZS02bGFkLnd3dy5ub3Qtd2ViLXBsYXRmb3JtLnRlc3SCJ3d3dzIueG4tLWx2ZS02
bGFkLm5vdC13ZWItcGxhdGZvcm0udGVzdIIneG4tLWx2ZS02bGFkLnd3dzIubm90
LXdlYi1wbGF0Zm9ybS50ZXN0gid4bi0tbHZlLTZsYWQud3d3MS5ub3Qtd2ViLXBs
YXRmb3JtLnRlc3SCJ3d3dzEueG4tLWx2ZS02bGFkLm5vdC13ZWItcGxhdGZvcm0u
dGVzdIIpeG4tLW44ajZkczUzbHd3a3JxaHYyOGEud2ViLXBsYXRmb3JtLnRlc3SC
K3huLS1sdmUtNmxhZC54bi0tbHZlLTZsYWQud2ViLXBsYXRmb3JtLnRlc3SCLXhu
LS1uOGo2ZHM1M2x3d2tycWh2MjhhLm5vdC13ZWItcGxhdGZvcm0udGVzdIIteG4t
LW44ajZkczUzbHd3a3JxaHYyOGEud3d3LndlYi1wbGF0Zm9ybS50ZXN0gi13d3cu
eG4tLW44ajZkczUzbHd3a3JxaHYyOGEud2ViLXBsYXRmb3JtLnRlc3SCLnhuLS1u
OGo2ZHM1M2x3d2tycWh2MjhhLnd3dzIud2ViLXBsYXRmb3JtLnRlc3SCLnd3dzIu
eG4tLW44ajZkczUzbHd3a3JxaHYyOGEud2ViLXBsYXRmb3JtLnRlc3SCLnd3dzEu
eG4tLW44ajZkczUzbHd3a3JxaHYyOGEud2ViLXBsYXRmb3JtLnRlc3SCLnhuLS1u
OGo2ZHM1M2x3d2tycWh2MjhhLnd3dzEud2ViLXBsYXRmb3JtLnRlc3SCL3huLS1s
dmUtNmxhZC54bi0tbHZlLTZsYWQubm90LXdlYi1wbGF0Zm9ybS50ZXN0gjF3d3cu
eG4tLW44ajZkczUzbHd3a3JxaHYyOGEubm90LXdlYi1wbGF0Zm9ybS50ZXN0gjF4
bi0tbjhqNmRzNTNsd3drcnFodjI4YS53d3cubm90LXdlYi1wbGF0Zm9ybS50ZXN0
gjJ3d3cyLnhuLS1uOGo2ZHM1M2x3d2tycWh2MjhhLm5vdC13ZWItcGxhdGZvcm0u
dGVzdIIyd3d3MS54bi0tbjhqNmRzNTNsd3drcnFodjI4YS5ub3Qtd2ViLXBsYXRm
b3JtLnRlc3SCMnhuLS1uOGo2ZHM1M2x3d2tycWh2MjhhLnd3dzIubm90LXdlYi1w
bGF0Zm9ybS50ZXN0gjJ4bi0tbjhqNmRzNTNsd3drcnFodjI4YS53d3cxLm5vdC13
ZWItcGxhdGZvcm0udGVzdII2eG4tLWx2ZS02bGFkLnhuLS1uOGo2ZHM1M2x3d2ty
cWh2MjhhLndlYi1wbGF0Zm9ybS50ZXN0gjZ4bi0tbjhqNmRzNTNsd3drcnFodjI4
YS54bi0tbHZlLTZsYWQud2ViLXBsYXRmb3JtLnRlc3SCOnhuLS1uOGo2ZHM1M2x3
d2tycWh2MjhhLnhuLS1sdmUtNmxhZC5ub3Qtd2ViLXBsYXRmb3JtLnRlc3SCOnhu
LS1sdmUtNmxhZC54bi0tbjhqNmRzNTNsd3drcnFodjI4YS5ub3Qtd2ViLXBsYXRm
b3JtLnRlc3SCQXhuLS1uOGo2ZHM1M2x3d2tycWh2MjhhLnhuLS1uOGo2ZHM1M2x3
d2tycWh2MjhhLndlYi1wbGF0Zm9ybS50ZXN0gkV4bi0tbjhqNmRzNTNsd3drcnFo
djI4YS54bi0tbjhqNmRzNTNsd3drcnFodjI4YS5ub3Qtd2ViLXBsYXRmb3JtLnRl
c3QwDQYJKoZIhvcNAQELBQADggEBAB/bXepMb1pbJ3CO4TflccwLZ2VJ+ecwDdI7
yKC1Y0J3PBDyeSsORgSVPldGc2JGKFtt+MhQLyPTKqov9x+xLtQHb1b4q5DxpUsQ
pMd3cmijPm3DDqFcmKllg4fvpW197dkYMPtJh7CZATKtiAJhnax/tMM0vJqD4++N
3DvMGFijaf3P+4FIJIKOAZIfpJV5PCq8W8N6Am1/ix8rSpXaUJvV0zxN62wfjVJl
isM8d3uaY/Jccat3wWUogKbrIpmolRRLY8l3jnWjew+bZkd0aBAKqks8VbFZjQ8k
ezuT7TBpzQj5xZA0/CGMy5uL715O06GGO+l9HHmqoj7fuAkJAYI=
-----END CERTIFICATE-----
