Certificate:
    Data:
        Version: 3 (0x2)
        Serial Number: 1155 (0x483)
        Signature Algorithm: sha256WithRSAEncryption
        Issuer: CN=web-platform-tests
        Validity
            Not Before: Oct 12 01:04:46 2024 GMT
            Not After : Oct 12 01:04:46 2025 GMT
        Subject: CN=web-platform.test
        Subject Public Key Info:
            Public Key Algorithm: rsaEncryption
                RSA Public-Key: (2048 bit)
                Modulus:
                    00:e0:fe:62:04:ff:c7:fa:8d:35:73:6c:8d:93:67:
                    09:80:fa:d2:30:b3:af:93:a5:2b:a1:ba:8b:7d:25:
                    b0:2b:70:87:f5:25:28:9c:42:5d:a2:b4:a8:03:16:
                    a3:35:8a:4b:5b:1d:e2:df:60:28:59:c3:74:d2:41:
                    95:32:85:a9:5f:08:6d:da:a6:15:30:1f:56:e3:19:
                    b4:40:b8:11:c8:39:2d:e7:70:29:7f:68:2b:ea:6c:
                    8a:d4:dc:f4:69:08:85:53:31:fc:f9:3a:d0:e5:4f:
                    90:91:ca:7c:20:f6:a2:e5:c5:a7:29:8b:28:fd:9f:
                    0d:80:48:4a:0d:de:58:8b:59:b4:0e:44:e8:6e:3e:
                    db:e6:44:ac:1a:15:19:bb:39:8e:ba:f6:81:70:69:
                    0a:a8:78:3a:c2:07:d2:cf:94:42:62:62:35:a3:05:
                    92:20:86:7b:04:d5:8d:03:49:5e:e5:cf:e9:bb:70:
                    a6:06:f8:f9:d9:28:d6:1f:2a:0e:ff:31:5d:a0:e4:
                    fa:96:5e:a1:33:88:90:46:16:88:9c:2f:80:db:b2:
                    4e:d7:fb:0b:c6:f9:3f:4d:c0:aa:d0:28:4d:2d:d6:
                    c1:3e:a0:8b:11:74:b2:d7:be:9d:24:fb:eb:a6:e7:
                    b2:0d:d4:ab:af:2b:5c:55:fc:c8:3d:4d:e5:71:ff:
                    39:69
                Exponent: 65537 (0x10001)
        X509v3 extensions:
            X509v3 Basic Constraints: 
                CA:FALSE
            X509v3 Subject Key Identifier: 
                6D:E6:53:45:A0:4B:96:3B:B6:C1:D8:5B:E8:C4:E2:2A:9D:9B:A2:BA
            X509v3 Authority Key Identifier: 
                keyid:C9:65:67:DF:F8:60:C5:FB:E0:F7:15:D1:ED:5B:6D:73:E2:73:D4:E7

            X509v3 Key Usage: 
                Digital Signature, Non Repudiation, Key Encipherment
            X509v3 Extended Key Usage: 
                TLS Web Server Authentication
            X509v3 Subject Alternative Name: 
                DNS:web-platform.test, DNS:www.web-platform.test, DNS:not-web-platform.test, DNS:www1.web-platform.test, DNS:www2.web-platform.test, DNS:www.www.web-platform.test, DNS:www.not-web-platform.test, DNS:www2.www.web-platform.test, DNS:www1.not-web-platform.test, DNS:www2.not-web-platform.test, DNS:www.www1.web-platform.test, DNS:www.www2.web-platform.test, DNS:www1.www.web-platform.test, DNS:www2.www2.web-platform.test, DNS:www1.www1.web-platform.test, DNS:www2.www1.web-platform.test, DNS:www1.www2.web-platform.test, DNS:www.www.not-web-platform.test, DNS:www.www2.not-web-platform.test, DNS:www2.www.not-web-platform.test, DNS:www.www1.not-web-platform.test, DNS:xn--lve-6lad.web-platform.test, DNS:www1.www.not-web-platform.test, DNS:www1.www2.not-web-platform.test, DNS:www2.www1.not-web-platform.test, DNS:www2.www2.not-web-platform.test, DNS:www1.www1.not-web-platform.test, DNS:xn--lve-6lad.www.web-platform.test, DNS:www.xn--lve-6lad.web-platform.test, DNS:xn--lve-6lad.not-web-platform.test, DNS:www1.xn--lve-6lad.web-platform.test, DNS:xn--lve-6lad.www1.web-platform.test, DNS:www2.xn--lve-6lad.web-platform.test, DNS:xn--lve-6lad.www2.web-platform.test, DNS:www.xn--lve-6lad.not-web-platform.test, DNS:xn--lve-6lad.www.not-web-platform.test, DNS:www2.xn--lve-6lad.not-web-platform.test, DNS:xn--lve-6lad.www1.not-web-platform.test, DNS:xn--lve-6lad.www2.not-web-platform.test, DNS:www1.xn--lve-6lad.not-web-platform.test, DNS:xn--n8j6ds53lwwkrqhv28a.web-platform.test, DNS:xn--lve-6lad.xn--lve-6lad.web-platform.test, DNS:www.xn--n8j6ds53lwwkrqhv28a.web-platform.test, DNS:xn--n8j6ds53lwwkrqhv28a.www.web-platform.test, DNS:xn--n8j6ds53lwwkrqhv28a.not-web-platform.test, DNS:www1.xn--n8j6ds53lwwkrqhv28a.web-platform.test, DNS:xn--n8j6ds53lwwkrqhv28a.www1.web-platform.test, DNS:xn--n8j6ds53lwwkrqhv28a.www2.web-platform.test, DNS:www2.xn--n8j6ds53lwwkrqhv28a.web-platform.test, DNS:xn--lve-6lad.xn--lve-6lad.not-web-platform.test, DNS:www.xn--n8j6ds53lwwkrqhv28a.not-web-platform.test, DNS:xn--n8j6ds53lwwkrqhv28a.www.not-web-platform.test, DNS:www1.xn--n8j6ds53lwwkrqhv28a.not-web-platform.test, DNS:xn--n8j6ds53lwwkrqhv28a.www1.not-web-platform.test, DNS:www2.xn--n8j6ds53lwwkrqhv28a.not-web-platform.test, DNS:xn--n8j6ds53lwwkrqhv28a.www2.not-web-platform.test, DNS:xn--lve-6lad.xn--n8j6ds53lwwkrqhv28a.web-platform.test, DNS:xn--n8j6ds53lwwkrqhv28a.xn--lve-6lad.web-platform.test, DNS:xn--lve-6lad.xn--n8j6ds53lwwkrqhv28a.not-web-platform.test, DNS:xn--n8j6ds53lwwkrqhv28a.xn--lve-6lad.not-web-platform.test, DNS:xn--n8j6ds53lwwkrqhv28a.xn--n8j6ds53lwwkrqhv28a.web-platform.test, DNS:xn--n8j6ds53lwwkrqhv28a.xn--n8j6ds53lwwkrqhv28a.not-web-platform.test
    Signature Algorithm: sha256WithRSAEncryption
         41:30:c3:35:8a:8c:3c:5d:5d:a3:d7:10:28:81:59:c7:cd:b0:
         a8:73:8f:1a:d1:36:be:40:86:3c:63:cb:1c:a9:41:26:a0:0c:
         6a:cf:b7:cf:76:3f:64:fa:ea:e5:74:9b:57:1d:b2:dd:92:ce:
         ed:c1:32:ec:65:eb:7d:c2:73:ab:8d:95:33:b3:a3:d2:b0:6d:
         81:0d:3f:31:c3:89:23:49:39:da:6f:22:b5:1d:12:97:6e:cc:
         20:43:5a:ca:f4:d5:3e:01:be:90:03:b2:4e:f7:9c:e2:97:21:
         39:a3:33:8c:45:a4:6c:e9:3a:eb:87:2d:1d:39:e6:d8:bb:b2:
         15:01:a4:8f:70:25:61:4f:0f:5f:35:8d:9c:c6:fb:81:3b:52:
         15:94:90:e4:ee:d7:3b:b2:b7:68:45:46:bb:56:06:7f:83:73:
         d9:a8:1c:0d:17:fb:ce:81:5d:1c:0a:4f:0c:75:68:a2:70:64:
         6d:de:ad:cf:ac:10:e5:e5:04:1f:e8:12:8d:59:27:e2:9a:76:
         dd:30:89:bc:2e:22:ac:97:12:86:a0:45:9e:2f:e2:3f:c3:0a:
         fe:14:6c:2a:28:a6:a3:00:81:d0:53:e2:4d:66:9c:13:9e:e5:
         25:02:27:b3:05:62:73:08:49:43:6e:15:74:0d:ed:dc:71:47:
         6c:79:53:1d
-----BEGIN CERTIFICATE-----
MIIMsTCCC5mgAwIBAgICBIMwDQYJKoZIhvcNAQELBQAwHTEbMBkGA1UEAwwSd2Vi
LXBsYXRmb3JtLXRlc3RzMB4XDTI0MTAxMjAxMDQ0NloXDTI1MTAxMjAxMDQ0Nlow
HDEaMBgGA1UEAwwRd2ViLXBsYXRmb3JtLnRlc3QwggEiMA0GCSqGSIb3DQEBAQUA
A4IBDwAwggEKAoIBAQDg/mIE/8f6jTVzbI2TZwmA+tIws6+TpSuhuot9JbArcIf1
JSicQl2itKgDFqM1iktbHeLfYChZw3TSQZUyhalfCG3aphUwH1bjGbRAuBHIOS3n
cCl/aCvqbIrU3PRpCIVTMfz5OtDlT5CRynwg9qLlxacpiyj9nw2ASEoN3liLWbQO
ROhuPtvmRKwaFRm7OY669oFwaQqoeDrCB9LPlEJiYjWjBZIghnsE1Y0DSV7lz+m7
cKYG+PnZKNYfKg7/MV2g5PqWXqEziJBGFoicL4Dbsk7X+wvG+T9NwKrQKE0t1sE+
oIsRdLLXvp0k++um57IN1KuvK1xV/Mg9TeVx/zlpAgMBAAGjggn6MIIJ9jAJBgNV
HRMEAjAAMB0GA1UdDgQWBBRt5lNFoEuWO7bB2FvoxOIqnZuiujAfBgNVHSMEGDAW
gBTJZWff+GDF++D3FdHtW21z4nPU5zALBgNVHQ8EBAMCBeAwEwYDVR0lBAwwCgYI
KwYBBQUHAwEwggmFBgNVHREEggl8MIIJeIIRd2ViLXBsYXRmb3JtLnRlc3SCFXd3
dy53ZWItcGxhdGZvcm0udGVzdIIVbm90LXdlYi1wbGF0Zm9ybS50ZXN0ghZ3d3cx
LndlYi1wbGF0Zm9ybS50ZXN0ghZ3d3cyLndlYi1wbGF0Zm9ybS50ZXN0ghl3d3cu
d3d3LndlYi1wbGF0Zm9ybS50ZXN0ghl3d3cubm90LXdlYi1wbGF0Zm9ybS50ZXN0
ghp3d3cyLnd3dy53ZWItcGxhdGZvcm0udGVzdIIad3d3MS5ub3Qtd2ViLXBsYXRm
b3JtLnRlc3SCGnd3dzIubm90LXdlYi1wbGF0Zm9ybS50ZXN0ghp3d3cud3d3MS53
ZWItcGxhdGZvcm0udGVzdIIad3d3Lnd3dzIud2ViLXBsYXRmb3JtLnRlc3SCGnd3
dzEud3d3LndlYi1wbGF0Zm9ybS50ZXN0ght3d3cyLnd3dzIud2ViLXBsYXRmb3Jt
LnRlc3SCG3d3dzEud3d3MS53ZWItcGxhdGZvcm0udGVzdIIbd3d3Mi53d3cxLndl
Yi1wbGF0Zm9ybS50ZXN0ght3d3cxLnd3dzIud2ViLXBsYXRmb3JtLnRlc3SCHXd3
dy53d3cubm90LXdlYi1wbGF0Zm9ybS50ZXN0gh53d3cud3d3Mi5ub3Qtd2ViLXBs
YXRmb3JtLnRlc3SCHnd3dzIud3d3Lm5vdC13ZWItcGxhdGZvcm0udGVzdIIed3d3
Lnd3dzEubm90LXdlYi1wbGF0Zm9ybS50ZXN0gh54bi0tbHZlLTZsYWQud2ViLXBs
YXRmb3JtLnRlc3SCHnd3dzEud3d3Lm5vdC13ZWItcGxhdGZvcm0udGVzdIIfd3d3
MS53d3cyLm5vdC13ZWItcGxhdGZvcm0udGVzdIIfd3d3Mi53d3cxLm5vdC13ZWIt
cGxhdGZvcm0udGVzdIIfd3d3Mi53d3cyLm5vdC13ZWItcGxhdGZvcm0udGVzdIIf
d3d3MS53d3cxLm5vdC13ZWItcGxhdGZvcm0udGVzdIIieG4tLWx2ZS02bGFkLnd3
dy53ZWItcGxhdGZvcm0udGVzdIIid3d3LnhuLS1sdmUtNmxhZC53ZWItcGxhdGZv
cm0udGVzdIIieG4tLWx2ZS02bGFkLm5vdC13ZWItcGxhdGZvcm0udGVzdIIjd3d3
MS54bi0tbHZlLTZsYWQud2ViLXBsYXRmb3JtLnRlc3SCI3huLS1sdmUtNmxhZC53
d3cxLndlYi1wbGF0Zm9ybS50ZXN0giN3d3cyLnhuLS1sdmUtNmxhZC53ZWItcGxh
dGZvcm0udGVzdIIjeG4tLWx2ZS02bGFkLnd3dzIud2ViLXBsYXRmb3JtLnRlc3SC
Jnd3dy54bi0tbHZlLTZsYWQubm90LXdlYi1wbGF0Zm9ybS50ZXN0giZ4bi0tbHZl
LTZsYWQud3d3Lm5vdC13ZWItcGxhdGZvcm0udGVzdIInd3d3Mi54bi0tbHZlLTZs
YWQubm90LXdlYi1wbGF0Zm9ybS50ZXN0gid4bi0tbHZlLTZsYWQud3d3MS5ub3Qt
d2ViLXBsYXRmb3JtLnRlc3SCJ3huLS1sdmUtNmxhZC53d3cyLm5vdC13ZWItcGxh
dGZvcm0udGVzdIInd3d3MS54bi0tbHZlLTZsYWQubm90LXdlYi1wbGF0Zm9ybS50
ZXN0gil4bi0tbjhqNmRzNTNsd3drcnFodjI4YS53ZWItcGxhdGZvcm0udGVzdIIr
eG4tLWx2ZS02bGFkLnhuLS1sdmUtNmxhZC53ZWItcGxhdGZvcm0udGVzdIItd3d3
LnhuLS1uOGo2ZHM1M2x3d2tycWh2MjhhLndlYi1wbGF0Zm9ybS50ZXN0gi14bi0t
bjhqNmRzNTNsd3drcnFodjI4YS53d3cud2ViLXBsYXRmb3JtLnRlc3SCLXhuLS1u
OGo2ZHM1M2x3d2tycWh2MjhhLm5vdC13ZWItcGxhdGZvcm0udGVzdIIud3d3MS54
bi0tbjhqNmRzNTNsd3drcnFodjI4YS53ZWItcGxhdGZvcm0udGVzdIIueG4tLW44
ajZkczUzbHd3a3JxaHYyOGEud3d3MS53ZWItcGxhdGZvcm0udGVzdIIueG4tLW44
ajZkczUzbHd3a3JxaHYyOGEud3d3Mi53ZWItcGxhdGZvcm0udGVzdIIud3d3Mi54
bi0tbjhqNmRzNTNsd3drcnFodjI4YS53ZWItcGxhdGZvcm0udGVzdIIveG4tLWx2
ZS02bGFkLnhuLS1sdmUtNmxhZC5ub3Qtd2ViLXBsYXRmb3JtLnRlc3SCMXd3dy54
bi0tbjhqNmRzNTNsd3drcnFodjI4YS5ub3Qtd2ViLXBsYXRmb3JtLnRlc3SCMXhu
LS1uOGo2ZHM1M2x3d2tycWh2MjhhLnd3dy5ub3Qtd2ViLXBsYXRmb3JtLnRlc3SC
Mnd3dzEueG4tLW44ajZkczUzbHd3a3JxaHYyOGEubm90LXdlYi1wbGF0Zm9ybS50
ZXN0gjJ4bi0tbjhqNmRzNTNsd3drcnFodjI4YS53d3cxLm5vdC13ZWItcGxhdGZv
cm0udGVzdIIyd3d3Mi54bi0tbjhqNmRzNTNsd3drcnFodjI4YS5ub3Qtd2ViLXBs
YXRmb3JtLnRlc3SCMnhuLS1uOGo2ZHM1M2x3d2tycWh2MjhhLnd3dzIubm90LXdl
Yi1wbGF0Zm9ybS50ZXN0gjZ4bi0tbHZlLTZsYWQueG4tLW44ajZkczUzbHd3a3Jx
aHYyOGEud2ViLXBsYXRmb3JtLnRlc3SCNnhuLS1uOGo2ZHM1M2x3d2tycWh2Mjhh
LnhuLS1sdmUtNmxhZC53ZWItcGxhdGZvcm0udGVzdII6eG4tLWx2ZS02bGFkLnhu
LS1uOGo2ZHM1M2x3d2tycWh2MjhhLm5vdC13ZWItcGxhdGZvcm0udGVzdII6eG4t
LW44ajZkczUzbHd3a3JxaHYyOGEueG4tLWx2ZS02bGFkLm5vdC13ZWItcGxhdGZv
cm0udGVzdIJBeG4tLW44ajZkczUzbHd3a3JxaHYyOGEueG4tLW44ajZkczUzbHd3
a3JxaHYyOGEud2ViLXBsYXRmb3JtLnRlc3SCRXhuLS1uOGo2ZHM1M2x3d2tycWh2
MjhhLnhuLS1uOGo2ZHM1M2x3d2tycWh2MjhhLm5vdC13ZWItcGxhdGZvcm0udGVz
dDANBgkqhkiG9w0BAQsFAAOCAQEAQTDDNYqMPF1do9cQKIFZx82wqHOPGtE2vkCG
PGPLHKlBJqAMas+3z3Y/ZPrq5XSbVx2y3ZLO7cEy7GXrfcJzq42VM7Oj0rBtgQ0/
McOJI0k52m8itR0Sl27MIENayvTVPgG+kAOyTvec4pchOaMzjEWkbOk664ctHTnm
2LuyFQGkj3AlYU8PXzWNnMb7gTtSFZSQ5O7XO7K3aEVGu1YGf4Nz2agcDRf7zoFd
HApPDHVoonBkbd6tz6wQ5eUEH+gSjVkn4pp23TCJvC4irJcShqBFni/iP8MK/hRs
KiimowCB0FPiTWacE57lJQInswVicwhJQ24VdA3t3HFHbHlTHQ==
-----END CERTIFICATE-----
