Certificate:
    Data:
        Version: 3 (0x2)
        Serial Number: 419850 (0x6680a)
        Signature Algorithm: sha256WithRSAEncryption
        Issuer: CN=web-platform-tests
        Validity
            Not Before: Aug 12 00:45:36 2023 GMT
            Not After : Aug 11 00:45:36 2024 GMT
        Subject: CN=web-platform.test
        Subject Public Key Info:
            Public Key Algorithm: rsaEncryption
                RSA Public-Key: (2048 bit)
                Modulus:
                    00:a8:f8:a0:51:6a:4d:70:0f:0a:61:c8:89:88:9d:
                    e3:0c:af:f4:03:59:7b:81:c4:84:25:be:50:d5:73:
                    31:91:df:fa:7b:de:a7:13:dd:43:41:7b:e6:ca:0c:
                    d1:5c:3a:e8:c9:fd:2f:28:45:d0:ec:c2:73:c0:17:
                    0f:33:06:09:aa:f7:ee:e6:77:92:92:6b:05:fa:7a:
                    12:cf:6a:e6:cf:80:ea:dd:bd:9e:21:ec:5c:b3:83:
                    40:b4:5f:71:2b:8e:ae:99:65:da:ac:28:19:43:28:
                    ed:ac:af:1b:c1:df:af:85:7e:0b:19:36:a7:98:9f:
                    08:54:c1:42:86:42:28:4f:6d:97:a1:74:cd:1e:95:
                    c6:29:4f:d7:cb:41:25:3f:c1:79:15:4a:e8:ad:39:
                    37:af:51:03:05:69:7f:e6:bc:48:47:81:87:0f:53:
                    2c:1f:df:3c:ea:11:a2:5b:97:8b:30:7a:de:09:99:
                    c7:cd:65:8a:62:68:ba:33:c1:62:40:eb:80:43:04:
                    4c:ed:ea:98:ec:b1:03:31:14:07:4a:a1:4e:81:11:
                    f0:d4:bc:8a:61:5c:0c:26:5f:90:c8:6f:a6:68:95:
                    1f:13:a3:f6:9b:3c:81:20:98:c8:64:99:1a:4c:84:
                    7b:37:ef:e4:d1:c4:e5:9a:70:16:cd:d5:54:ae:e3:
                    79:6b
                Exponent: 65537 (0x10001)
        X509v3 extensions:
            X509v3 Basic Constraints: 
                CA:FALSE
            X509v3 Subject Key Identifier: 
                3F:99:A2:8E:CA:F2:40:25:E7:B8:79:FA:B2:6D:09:FF:51:B9:A5:8F
            X509v3 Authority Key Identifier: 
                keyid:13:F2:89:DD:BA:ED:E1:12:57:3B:09:F8:70:D7:79:8E:20:09:3D:70

            X509v3 Key Usage: 
                Digital Signature, Non Repudiation, Key Encipherment
            X509v3 Extended Key Usage: 
                TLS Web Server Authentication
            X509v3 Subject Alternative Name: 
                DNS:web-platform.test, DNS:www.web-platform.test, DNS:not-web-platform.test, DNS:www2.web-platform.test, DNS:www1.web-platform.test, DNS:www.www.web-platform.test, DNS:www.not-web-platform.test, DNS:www2.www.web-platform.test, DNS:www1.www.web-platform.test, DNS:www1.not-web-platform.test, DNS:www.www1.web-platform.test, DNS:www.www2.web-platform.test, DNS:www2.not-web-platform.test, DNS:www2.www1.web-platform.test, DNS:www1.www2.web-platform.test, DNS:www1.www1.web-platform.test, DNS:www2.www2.web-platform.test, DNS:www.www.not-web-platform.test, DNS:www2.www.not-web-platform.test, DNS:xn--lve-6lad.web-platform.test, DNS:www.www2.not-web-platform.test, DNS:www.www1.not-web-platform.test, DNS:www1.www.not-web-platform.test, DNS:www1.www1.not-web-platform.test, DNS:www2.www2.not-web-platform.test, DNS:www1.www2.not-web-platform.test, DNS:www2.www1.not-web-platform.test, DNS:xn--lve-6lad.www.web-platform.test, DNS:xn--lve-6lad.not-web-platform.test, DNS:www.xn--lve-6lad.web-platform.test, DNS:xn--lve-6lad.www2.web-platform.test, DNS:www1.xn--lve-6lad.web-platform.test, DNS:xn--lve-6lad.www1.web-platform.test, DNS:www2.xn--lve-6lad.web-platform.test, DNS:xn--lve-6lad.www.not-web-platform.test, DNS:www.xn--lve-6lad.not-web-platform.test, DNS:xn--lve-6lad.www1.not-web-platform.test, DNS:xn--lve-6lad.www2.not-web-platform.test, DNS:www1.xn--lve-6lad.not-web-platform.test, DNS:www2.xn--lve-6lad.not-web-platform.test, DNS:xn--n8j6ds53lwwkrqhv28a.web-platform.test, DNS:xn--lve-6lad.xn--lve-6lad.web-platform.test, DNS:xn--n8j6ds53lwwkrqhv28a.not-web-platform.test, DNS:www.xn--n8j6ds53lwwkrqhv28a.web-platform.test, DNS:xn--n8j6ds53lwwkrqhv28a.www.web-platform.test, DNS:xn--n8j6ds53lwwkrqhv28a.www2.web-platform.test, DNS:xn--n8j6ds53lwwkrqhv28a.www1.web-platform.test, DNS:www1.xn--n8j6ds53lwwkrqhv28a.web-platform.test, DNS:www2.xn--n8j6ds53lwwkrqhv28a.web-platform.test, DNS:xn--lve-6lad.xn--lve-6lad.not-web-platform.test, DNS:xn--n8j6ds53lwwkrqhv28a.www.not-web-platform.test, DNS:www.xn--n8j6ds53lwwkrqhv28a.not-web-platform.test, DNS:www1.xn--n8j6ds53lwwkrqhv28a.not-web-platform.test, DNS:xn--n8j6ds53lwwkrqhv28a.www2.not-web-platform.test, DNS:xn--n8j6ds53lwwkrqhv28a.www1.not-web-platform.test, DNS:www2.xn--n8j6ds53lwwkrqhv28a.not-web-platform.test, DNS:xn--n8j6ds53lwwkrqhv28a.xn--lve-6lad.web-platform.test, DNS:xn--lve-6lad.xn--n8j6ds53lwwkrqhv28a.web-platform.test, DNS:xn--n8j6ds53lwwkrqhv28a.xn--lve-6lad.not-web-platform.test, DNS:xn--lve-6lad.xn--n8j6ds53lwwkrqhv28a.not-web-platform.test, DNS:xn--n8j6ds53lwwkrqhv28a.xn--n8j6ds53lwwkrqhv28a.web-platform.test, DNS:xn--n8j6ds53lwwkrqhv28a.xn--n8j6ds53lwwkrqhv28a.not-web-platform.test
    Signature Algorithm: sha256WithRSAEncryption
         5f:75:75:27:16:7c:d4:f8:7d:8d:09:54:98:3d:92:8f:a4:2f:
         e4:69:cc:ae:a8:af:88:e9:d2:53:29:35:78:f8:38:a0:f9:7a:
         19:65:01:ad:b4:83:2f:c5:4f:5e:a3:08:5a:fb:52:f1:a7:79:
         8d:cc:18:42:4d:df:1f:e1:8a:8e:c3:75:ec:cc:66:40:1f:c5:
         15:be:03:79:d2:7e:93:80:ef:75:5c:7f:71:eb:c5:45:0f:08:
         82:5f:ca:ba:7b:56:98:b4:64:ff:54:43:9c:99:cb:31:5c:21:
         9e:88:37:2e:41:59:e4:59:1a:0f:6d:05:58:84:e4:b9:c7:ed:
         6c:f7:b3:75:bf:18:31:00:d6:9a:cf:60:07:74:cb:81:ec:d8:
         a3:91:96:77:36:04:aa:93:2f:4d:28:6f:20:94:43:57:0c:83:
         b5:26:e5:68:c0:2b:b9:20:49:34:10:bf:71:6d:78:ef:35:a0:
         bf:df:1c:d7:29:ec:af:d8:ac:9b:f0:14:80:1b:03:dc:9c:d6:
         25:29:ff:86:31:b5:55:c0:7b:6d:a7:73:02:74:06:ea:83:64:
         f6:7f:3b:83:9b:08:36:cc:77:58:75:e5:4c:73:e5:bf:0e:fb:
         f1:65:83:e9:a9:2b:db:71:93:61:a5:ce:46:aa:c8:34:01:e9:
         a8:20:1d:09
-----BEGIN CERTIFICATE-----
MIIMsjCCC5qgAwIBAgIDBmgKMA0GCSqGSIb3DQEBCwUAMB0xGzAZBgNVBAMMEndl
Yi1wbGF0Zm9ybS10ZXN0czAeFw0yMzA4MTIwMDQ1MzZaFw0yNDA4MTEwMDQ1MzZa
MBwxGjAYBgNVBAMMEXdlYi1wbGF0Zm9ybS50ZXN0MIIBIjANBgkqhkiG9w0BAQEF
AAOCAQ8AMIIBCgKCAQEAqPigUWpNcA8KYciJiJ3jDK/0A1l7gcSEJb5Q1XMxkd/6
e96nE91DQXvmygzRXDroyf0vKEXQ7MJzwBcPMwYJqvfu5neSkmsF+noSz2rmz4Dq
3b2eIexcs4NAtF9xK46umWXarCgZQyjtrK8bwd+vhX4LGTanmJ8IVMFChkIoT22X
oXTNHpXGKU/Xy0ElP8F5FUrorTk3r1EDBWl/5rxIR4GHD1MsH9886hGiW5eLMHre
CZnHzWWKYmi6M8FiQOuAQwRM7eqY7LEDMRQHSqFOgRHw1LyKYVwMJl+QyG+maJUf
E6P2mzyBIJjIZJkaTIR7N+/k0cTlmnAWzdVUruN5awIDAQABo4IJ+jCCCfYwCQYD
VR0TBAIwADAdBgNVHQ4EFgQUP5mijsryQCXnuHn6sm0J/1G5pY8wHwYDVR0jBBgw
FoAUE/KJ3brt4RJXOwn4cNd5jiAJPXAwCwYDVR0PBAQDAgXgMBMGA1UdJQQMMAoG
CCsGAQUFBwMBMIIJhQYDVR0RBIIJfDCCCXiCEXdlYi1wbGF0Zm9ybS50ZXN0ghV3
d3cud2ViLXBsYXRmb3JtLnRlc3SCFW5vdC13ZWItcGxhdGZvcm0udGVzdIIWd3d3
Mi53ZWItcGxhdGZvcm0udGVzdIIWd3d3MS53ZWItcGxhdGZvcm0udGVzdIIZd3d3
Lnd3dy53ZWItcGxhdGZvcm0udGVzdIIZd3d3Lm5vdC13ZWItcGxhdGZvcm0udGVz
dIIad3d3Mi53d3cud2ViLXBsYXRmb3JtLnRlc3SCGnd3dzEud3d3LndlYi1wbGF0
Zm9ybS50ZXN0ghp3d3cxLm5vdC13ZWItcGxhdGZvcm0udGVzdIIad3d3Lnd3dzEu
d2ViLXBsYXRmb3JtLnRlc3SCGnd3dy53d3cyLndlYi1wbGF0Zm9ybS50ZXN0ghp3
d3cyLm5vdC13ZWItcGxhdGZvcm0udGVzdIIbd3d3Mi53d3cxLndlYi1wbGF0Zm9y
bS50ZXN0ght3d3cxLnd3dzIud2ViLXBsYXRmb3JtLnRlc3SCG3d3dzEud3d3MS53
ZWItcGxhdGZvcm0udGVzdIIbd3d3Mi53d3cyLndlYi1wbGF0Zm9ybS50ZXN0gh13
d3cud3d3Lm5vdC13ZWItcGxhdGZvcm0udGVzdIIed3d3Mi53d3cubm90LXdlYi1w
bGF0Zm9ybS50ZXN0gh54bi0tbHZlLTZsYWQud2ViLXBsYXRmb3JtLnRlc3SCHnd3
dy53d3cyLm5vdC13ZWItcGxhdGZvcm0udGVzdIIed3d3Lnd3dzEubm90LXdlYi1w
bGF0Zm9ybS50ZXN0gh53d3cxLnd3dy5ub3Qtd2ViLXBsYXRmb3JtLnRlc3SCH3d3
dzEud3d3MS5ub3Qtd2ViLXBsYXRmb3JtLnRlc3SCH3d3dzIud3d3Mi5ub3Qtd2Vi
LXBsYXRmb3JtLnRlc3SCH3d3dzEud3d3Mi5ub3Qtd2ViLXBsYXRmb3JtLnRlc3SC
H3d3dzIud3d3MS5ub3Qtd2ViLXBsYXRmb3JtLnRlc3SCInhuLS1sdmUtNmxhZC53
d3cud2ViLXBsYXRmb3JtLnRlc3SCInhuLS1sdmUtNmxhZC5ub3Qtd2ViLXBsYXRm
b3JtLnRlc3SCInd3dy54bi0tbHZlLTZsYWQud2ViLXBsYXRmb3JtLnRlc3SCI3hu
LS1sdmUtNmxhZC53d3cyLndlYi1wbGF0Zm9ybS50ZXN0giN3d3cxLnhuLS1sdmUt
NmxhZC53ZWItcGxhdGZvcm0udGVzdIIjeG4tLWx2ZS02bGFkLnd3dzEud2ViLXBs
YXRmb3JtLnRlc3SCI3d3dzIueG4tLWx2ZS02bGFkLndlYi1wbGF0Zm9ybS50ZXN0
giZ4bi0tbHZlLTZsYWQud3d3Lm5vdC13ZWItcGxhdGZvcm0udGVzdIImd3d3Lnhu
LS1sdmUtNmxhZC5ub3Qtd2ViLXBsYXRmb3JtLnRlc3SCJ3huLS1sdmUtNmxhZC53
d3cxLm5vdC13ZWItcGxhdGZvcm0udGVzdIIneG4tLWx2ZS02bGFkLnd3dzIubm90
LXdlYi1wbGF0Zm9ybS50ZXN0gid3d3cxLnhuLS1sdmUtNmxhZC5ub3Qtd2ViLXBs
YXRmb3JtLnRlc3SCJ3d3dzIueG4tLWx2ZS02bGFkLm5vdC13ZWItcGxhdGZvcm0u
dGVzdIIpeG4tLW44ajZkczUzbHd3a3JxaHYyOGEud2ViLXBsYXRmb3JtLnRlc3SC
K3huLS1sdmUtNmxhZC54bi0tbHZlLTZsYWQud2ViLXBsYXRmb3JtLnRlc3SCLXhu
LS1uOGo2ZHM1M2x3d2tycWh2MjhhLm5vdC13ZWItcGxhdGZvcm0udGVzdIItd3d3
LnhuLS1uOGo2ZHM1M2x3d2tycWh2MjhhLndlYi1wbGF0Zm9ybS50ZXN0gi14bi0t
bjhqNmRzNTNsd3drcnFodjI4YS53d3cud2ViLXBsYXRmb3JtLnRlc3SCLnhuLS1u
OGo2ZHM1M2x3d2tycWh2MjhhLnd3dzIud2ViLXBsYXRmb3JtLnRlc3SCLnhuLS1u
OGo2ZHM1M2x3d2tycWh2MjhhLnd3dzEud2ViLXBsYXRmb3JtLnRlc3SCLnd3dzEu
eG4tLW44ajZkczUzbHd3a3JxaHYyOGEud2ViLXBsYXRmb3JtLnRlc3SCLnd3dzIu
eG4tLW44ajZkczUzbHd3a3JxaHYyOGEud2ViLXBsYXRmb3JtLnRlc3SCL3huLS1s
dmUtNmxhZC54bi0tbHZlLTZsYWQubm90LXdlYi1wbGF0Zm9ybS50ZXN0gjF4bi0t
bjhqNmRzNTNsd3drcnFodjI4YS53d3cubm90LXdlYi1wbGF0Zm9ybS50ZXN0gjF3
d3cueG4tLW44ajZkczUzbHd3a3JxaHYyOGEubm90LXdlYi1wbGF0Zm9ybS50ZXN0
gjJ3d3cxLnhuLS1uOGo2ZHM1M2x3d2tycWh2MjhhLm5vdC13ZWItcGxhdGZvcm0u
dGVzdIIyeG4tLW44ajZkczUzbHd3a3JxaHYyOGEud3d3Mi5ub3Qtd2ViLXBsYXRm
b3JtLnRlc3SCMnhuLS1uOGo2ZHM1M2x3d2tycWh2MjhhLnd3dzEubm90LXdlYi1w
bGF0Zm9ybS50ZXN0gjJ3d3cyLnhuLS1uOGo2ZHM1M2x3d2tycWh2MjhhLm5vdC13
ZWItcGxhdGZvcm0udGVzdII2eG4tLW44ajZkczUzbHd3a3JxaHYyOGEueG4tLWx2
ZS02bGFkLndlYi1wbGF0Zm9ybS50ZXN0gjZ4bi0tbHZlLTZsYWQueG4tLW44ajZk
czUzbHd3a3JxaHYyOGEud2ViLXBsYXRmb3JtLnRlc3SCOnhuLS1uOGo2ZHM1M2x3
d2tycWh2MjhhLnhuLS1sdmUtNmxhZC5ub3Qtd2ViLXBsYXRmb3JtLnRlc3SCOnhu
LS1sdmUtNmxhZC54bi0tbjhqNmRzNTNsd3drcnFodjI4YS5ub3Qtd2ViLXBsYXRm
b3JtLnRlc3SCQXhuLS1uOGo2ZHM1M2x3d2tycWh2MjhhLnhuLS1uOGo2ZHM1M2x3
d2tycWh2MjhhLndlYi1wbGF0Zm9ybS50ZXN0gkV4bi0tbjhqNmRzNTNsd3drcnFo
djI4YS54bi0tbjhqNmRzNTNsd3drcnFodjI4YS5ub3Qtd2ViLXBsYXRmb3JtLnRl
c3QwDQYJKoZIhvcNAQELBQADggEBAF91dScWfNT4fY0JVJg9ko+kL+RpzK6or4jp
0lMpNXj4OKD5ehllAa20gy/FT16jCFr7UvGneY3MGEJN3x/hio7DdezMZkAfxRW+
A3nSfpOA73Vcf3HrxUUPCIJfyrp7Vpi0ZP9UQ5yZyzFcIZ6INy5BWeRZGg9tBViE
5LnH7Wz3s3W/GDEA1prPYAd0y4Hs2KORlnc2BKqTL00obyCUQ1cMg7Um5WjAK7kg
STQQv3FteO81oL/fHNcp7K/YrJvwFIAbA9yc1iUp/4YxtVXAe22ncwJ0BuqDZPZ/
O4ObCDbMd1h15Uxz5b8O+/Flg+mpK9txk2GlzkaqyDQB6aggHQk=
-----END CERTIFICATE-----
