Certificate:
    Data:
        Version: 3 (0x2)
        Serial Number: 677788 (0xa579c)
        Signature Algorithm: sha256WithRSAEncryption
        Issuer: CN=web-platform-tests
        Validity
            Not Before: Jun 12 03:36:34 2026 GMT
            Not After : Jun 12 03:36:34 2027 GMT
        Subject: CN=web-platform.test
        Subject Public Key Info:
            Public Key Algorithm: rsaEncryption
                Public-Key: (2048 bit)
                Modulus:
                    00:c7:62:16:88:ac:af:19:90:81:9e:9c:a3:3e:b9:
                    6e:3e:e2:d9:63:c5:94:0d:d2:23:24:2e:c9:f3:3d:
                    f2:df:40:a9:33:70:1d:e7:aa:b9:2b:98:dc:38:56:
                    9f:06:8d:ac:62:88:c5:f7:9b:a2:75:d4:81:67:f9:
                    d2:36:0f:65:35:16:4c:02:ff:f3:ff:e0:b1:65:39:
                    ca:5b:65:b4:d7:d8:5f:10:d5:4b:a7:85:31:4a:2b:
                    fa:c7:1c:8f:57:36:c8:f8:21:c8:07:b6:0e:15:b8:
                    6c:f3:73:b8:9a:8a:07:c2:12:8a:2f:2a:ab:e0:67:
                    77:49:e8:ec:e8:8e:42:11:72:86:78:79:dd:63:3d:
                    be:58:b6:a2:4a:f7:ab:fe:5f:65:e1:c9:3c:be:09:
                    3b:80:b8:35:b7:ab:15:07:5f:77:5e:97:5c:33:78:
                    25:fe:e0:eb:f5:ef:1f:2e:a8:f7:67:2e:44:1a:d4:
                    1c:2a:bd:20:7c:87:74:75:ac:b7:64:ef:6c:db:fc:
                    f5:1d:fe:66:4d:1e:78:24:ef:13:38:23:87:9b:d5:
                    28:a5:b5:d4:44:d3:e5:4d:87:8c:f7:3b:35:85:0d:
                    68:17:c5:c3:4c:8b:81:a9:d9:6f:c3:dd:eb:31:dd:
                    e1:48:89:7d:c6:5d:10:ad:7c:2e:3c:1b:5f:75:19:
                    44:a7
                Exponent: 65537 (0x10001)
        X509v3 extensions:
            X509v3 Basic Constraints: 
                CA:FALSE
            X509v3 Subject Key Identifier: 
                F5:05:51:A8:D3:4A:EF:57:64:B9:00:06:94:4F:4B:F3:E2:60:14:E6
            X509v3 Authority Key Identifier: 
                93:07:9B:4C:82:C9:B7:41:84:83:90:DA:A8:5B:1F:3A:9B:06:B9:71
            X509v3 Key Usage: 
                Digital Signature, Non Repudiation, Key Encipherment
            X509v3 Extended Key Usage: 
                TLS Web Server Authentication
            X509v3 Subject Alternative Name: 
                DNS:web-platform.test, DNS:not-web-platform.test, DNS:www.web-platform.test, DNS:www2.web-platform.test, DNS:www1.web-platform.test, DNS:www.www.web-platform.test, DNS:www.not-web-platform.test, DNS:www.www2.web-platform.test, DNS:www1.not-web-platform.test, DNS:www2.www.web-platform.test, DNS:www2.not-web-platform.test, DNS:www1.www.web-platform.test, DNS:www.www1.web-platform.test, DNS:www2.www1.web-platform.test, DNS:www1.www1.web-platform.test, DNS:www1.www2.web-platform.test, DNS:www2.www2.web-platform.test, DNS:www.www.not-web-platform.test, DNS:www.www1.not-web-platform.test, DNS:xn--lve-6lad.web-platform.test, DNS:www.www2.not-web-platform.test, DNS:www2.www.not-web-platform.test, DNS:www1.www.not-web-platform.test, DNS:www1.www1.not-web-platform.test, DNS:www2.www2.not-web-platform.test, DNS:www2.www1.not-web-platform.test, DNS:www1.www2.not-web-platform.test, DNS:xn--lve-6lad.www.web-platform.test, DNS:www.xn--lve-6lad.web-platform.test, DNS:xn--lve-6lad.not-web-platform.test, DNS:www1.xn--lve-6lad.web-platform.test, DNS:xn--lve-6lad.www2.web-platform.test, DNS:xn--lve-6lad.www1.web-platform.test, DNS:www2.xn--lve-6lad.web-platform.test, DNS:www.xn--lve-6lad.not-web-platform.test, DNS:xn--lve-6lad.www.not-web-platform.test, DNS:www1.xn--lve-6lad.not-web-platform.test, DNS:xn--lve-6lad.www1.not-web-platform.test, DNS:xn--lve-6lad.www2.not-web-platform.test, DNS:www2.xn--lve-6lad.not-web-platform.test, DNS:xn--n8j6ds53lwwkrqhv28a.web-platform.test, DNS:xn--lve-6lad.xn--lve-6lad.web-platform.test, DNS:www.xn--n8j6ds53lwwkrqhv28a.web-platform.test, DNS:xn--n8j6ds53lwwkrqhv28a.not-web-platform.test, DNS:xn--n8j6ds53lwwkrqhv28a.www.web-platform.test, DNS:xn--n8j6ds53lwwkrqhv28a.www2.web-platform.test, DNS:www2.xn--n8j6ds53lwwkrqhv28a.web-platform.test, DNS:www1.xn--n8j6ds53lwwkrqhv28a.web-platform.test, DNS:xn--n8j6ds53lwwkrqhv28a.www1.web-platform.test, DNS:xn--lve-6lad.xn--lve-6lad.not-web-platform.test, DNS:www.xn--n8j6ds53lwwkrqhv28a.not-web-platform.test, DNS:xn--n8j6ds53lwwkrqhv28a.www.not-web-platform.test, DNS:xn--n8j6ds53lwwkrqhv28a.www1.not-web-platform.test, DNS:xn--n8j6ds53lwwkrqhv28a.www2.not-web-platform.test, DNS:www2.xn--n8j6ds53lwwkrqhv28a.not-web-platform.test, DNS:www1.xn--n8j6ds53lwwkrqhv28a.not-web-platform.test, DNS:xn--n8j6ds53lwwkrqhv28a.xn--lve-6lad.web-platform.test, DNS:xn--lve-6lad.xn--n8j6ds53lwwkrqhv28a.web-platform.test, DNS:xn--lve-6lad.xn--n8j6ds53lwwkrqhv28a.not-web-platform.test, DNS:xn--n8j6ds53lwwkrqhv28a.xn--lve-6lad.not-web-platform.test, DNS:xn--n8j6ds53lwwkrqhv28a.xn--n8j6ds53lwwkrqhv28a.web-platform.test, DNS:xn--n8j6ds53lwwkrqhv28a.xn--n8j6ds53lwwkrqhv28a.not-web-platform.test
    Signature Algorithm: sha256WithRSAEncryption
    Signature Value:
        6d:e4:e5:16:b8:be:07:8d:7a:ad:55:c6:88:00:42:e7:85:da:
        64:7f:b2:60:64:8b:6b:ad:89:ae:93:29:5a:36:a6:9f:01:26:
        71:48:f1:02:2b:ec:cb:6f:97:b3:30:33:68:f9:30:b2:00:38:
        54:fc:a6:31:fe:fb:b0:32:0f:d5:e7:84:c7:f2:5c:82:20:48:
        ba:90:d7:0f:a2:65:8f:56:0b:d9:1e:23:75:6a:d1:50:2f:34:
        11:5d:6e:25:c3:19:3e:ba:ea:3c:fe:57:8c:23:34:50:e6:28:
        88:a0:50:87:cf:ed:73:83:0e:8c:1d:e7:9d:c9:fd:9d:86:11:
        72:82:ec:6c:62:39:8d:ea:f0:4b:90:bd:82:7e:dd:9b:6b:2a:
        72:3a:0f:6a:4f:21:ec:2c:d5:0b:a9:67:89:7e:5e:f8:62:f2:
        c2:5c:da:cb:87:53:07:34:a3:a8:fc:a8:0c:7d:83:89:1b:4f:
        04:1f:1d:f8:4c:32:61:d9:7e:ac:e5:d5:48:41:13:0a:ba:3b:
        9a:0c:ed:42:01:41:8a:b9:55:c8:53:42:20:d3:95:11:e1:2b:
        99:d6:12:8b:35:ee:aa:ed:0f:e7:41:85:b5:93:84:ab:a5:5d:
        e3:f4:8a:de:5b:5b:aa:0e:03:0c:93:6e:49:a2:be:e7:af:18:
        eb:f7:d7:7b
-----BEGIN CERTIFICATE-----
MIIMsjCCC5qgAwIBAgIDClecMA0GCSqGSIb3DQEBCwUAMB0xGzAZBgNVBAMMEndl
Yi1wbGF0Zm9ybS10ZXN0czAeFw0yNjA2MTIwMzM2MzRaFw0yNzA2MTIwMzM2MzRa
MBwxGjAYBgNVBAMMEXdlYi1wbGF0Zm9ybS50ZXN0MIIBIjANBgkqhkiG9w0BAQEF
AAOCAQ8AMIIBCgKCAQEAx2IWiKyvGZCBnpyjPrluPuLZY8WUDdIjJC7J8z3y30Cp
M3Ad56q5K5jcOFafBo2sYojF95uiddSBZ/nSNg9lNRZMAv/z/+CxZTnKW2W019hf
ENVLp4UxSiv6xxyPVzbI+CHIB7YOFbhs83O4mooHwhKKLyqr4Gd3Sejs6I5CEXKG
eHndYz2+WLaiSver/l9l4ck8vgk7gLg1t6sVB193XpdcM3gl/uDr9e8fLqj3Zy5E
GtQcKr0gfId0day3ZO9s2/z1Hf5mTR54JO8TOCOHm9UopbXURNPlTYeM9zs1hQ1o
F8XDTIuBqdlvw93rMd3hSIl9xl0QrXwuPBtfdRlEpwIDAQABo4IJ+jCCCfYwCQYD
VR0TBAIwADAdBgNVHQ4EFgQU9QVRqNNK71dkuQAGlE9L8+JgFOYwHwYDVR0jBBgw
FoAUkwebTILJt0GEg5DaqFsfOpsGuXEwCwYDVR0PBAQDAgXgMBMGA1UdJQQMMAoG
CCsGAQUFBwMBMIIJhQYDVR0RBIIJfDCCCXiCEXdlYi1wbGF0Zm9ybS50ZXN0ghVu
b3Qtd2ViLXBsYXRmb3JtLnRlc3SCFXd3dy53ZWItcGxhdGZvcm0udGVzdIIWd3d3
Mi53ZWItcGxhdGZvcm0udGVzdIIWd3d3MS53ZWItcGxhdGZvcm0udGVzdIIZd3d3
Lnd3dy53ZWItcGxhdGZvcm0udGVzdIIZd3d3Lm5vdC13ZWItcGxhdGZvcm0udGVz
dIIad3d3Lnd3dzIud2ViLXBsYXRmb3JtLnRlc3SCGnd3dzEubm90LXdlYi1wbGF0
Zm9ybS50ZXN0ghp3d3cyLnd3dy53ZWItcGxhdGZvcm0udGVzdIIad3d3Mi5ub3Qt
d2ViLXBsYXRmb3JtLnRlc3SCGnd3dzEud3d3LndlYi1wbGF0Zm9ybS50ZXN0ghp3
d3cud3d3MS53ZWItcGxhdGZvcm0udGVzdIIbd3d3Mi53d3cxLndlYi1wbGF0Zm9y
bS50ZXN0ght3d3cxLnd3dzEud2ViLXBsYXRmb3JtLnRlc3SCG3d3dzEud3d3Mi53
ZWItcGxhdGZvcm0udGVzdIIbd3d3Mi53d3cyLndlYi1wbGF0Zm9ybS50ZXN0gh13
d3cud3d3Lm5vdC13ZWItcGxhdGZvcm0udGVzdIIed3d3Lnd3dzEubm90LXdlYi1w
bGF0Zm9ybS50ZXN0gh54bi0tbHZlLTZsYWQud2ViLXBsYXRmb3JtLnRlc3SCHnd3
dy53d3cyLm5vdC13ZWItcGxhdGZvcm0udGVzdIIed3d3Mi53d3cubm90LXdlYi1w
bGF0Zm9ybS50ZXN0gh53d3cxLnd3dy5ub3Qtd2ViLXBsYXRmb3JtLnRlc3SCH3d3
dzEud3d3MS5ub3Qtd2ViLXBsYXRmb3JtLnRlc3SCH3d3dzIud3d3Mi5ub3Qtd2Vi
LXBsYXRmb3JtLnRlc3SCH3d3dzIud3d3MS5ub3Qtd2ViLXBsYXRmb3JtLnRlc3SC
H3d3dzEud3d3Mi5ub3Qtd2ViLXBsYXRmb3JtLnRlc3SCInhuLS1sdmUtNmxhZC53
d3cud2ViLXBsYXRmb3JtLnRlc3SCInd3dy54bi0tbHZlLTZsYWQud2ViLXBsYXRm
b3JtLnRlc3SCInhuLS1sdmUtNmxhZC5ub3Qtd2ViLXBsYXRmb3JtLnRlc3SCI3d3
dzEueG4tLWx2ZS02bGFkLndlYi1wbGF0Zm9ybS50ZXN0giN4bi0tbHZlLTZsYWQu
d3d3Mi53ZWItcGxhdGZvcm0udGVzdIIjeG4tLWx2ZS02bGFkLnd3dzEud2ViLXBs
YXRmb3JtLnRlc3SCI3d3dzIueG4tLWx2ZS02bGFkLndlYi1wbGF0Zm9ybS50ZXN0
giZ3d3cueG4tLWx2ZS02bGFkLm5vdC13ZWItcGxhdGZvcm0udGVzdIImeG4tLWx2
ZS02bGFkLnd3dy5ub3Qtd2ViLXBsYXRmb3JtLnRlc3SCJ3d3dzEueG4tLWx2ZS02
bGFkLm5vdC13ZWItcGxhdGZvcm0udGVzdIIneG4tLWx2ZS02bGFkLnd3dzEubm90
LXdlYi1wbGF0Zm9ybS50ZXN0gid4bi0tbHZlLTZsYWQud3d3Mi5ub3Qtd2ViLXBs
YXRmb3JtLnRlc3SCJ3d3dzIueG4tLWx2ZS02bGFkLm5vdC13ZWItcGxhdGZvcm0u
dGVzdIIpeG4tLW44ajZkczUzbHd3a3JxaHYyOGEud2ViLXBsYXRmb3JtLnRlc3SC
K3huLS1sdmUtNmxhZC54bi0tbHZlLTZsYWQud2ViLXBsYXRmb3JtLnRlc3SCLXd3
dy54bi0tbjhqNmRzNTNsd3drcnFodjI4YS53ZWItcGxhdGZvcm0udGVzdIIteG4t
LW44ajZkczUzbHd3a3JxaHYyOGEubm90LXdlYi1wbGF0Zm9ybS50ZXN0gi14bi0t
bjhqNmRzNTNsd3drcnFodjI4YS53d3cud2ViLXBsYXRmb3JtLnRlc3SCLnhuLS1u
OGo2ZHM1M2x3d2tycWh2MjhhLnd3dzIud2ViLXBsYXRmb3JtLnRlc3SCLnd3dzIu
eG4tLW44ajZkczUzbHd3a3JxaHYyOGEud2ViLXBsYXRmb3JtLnRlc3SCLnd3dzEu
eG4tLW44ajZkczUzbHd3a3JxaHYyOGEud2ViLXBsYXRmb3JtLnRlc3SCLnhuLS1u
OGo2ZHM1M2x3d2tycWh2MjhhLnd3dzEud2ViLXBsYXRmb3JtLnRlc3SCL3huLS1s
dmUtNmxhZC54bi0tbHZlLTZsYWQubm90LXdlYi1wbGF0Zm9ybS50ZXN0gjF3d3cu
eG4tLW44ajZkczUzbHd3a3JxaHYyOGEubm90LXdlYi1wbGF0Zm9ybS50ZXN0gjF4
bi0tbjhqNmRzNTNsd3drcnFodjI4YS53d3cubm90LXdlYi1wbGF0Zm9ybS50ZXN0
gjJ4bi0tbjhqNmRzNTNsd3drcnFodjI4YS53d3cxLm5vdC13ZWItcGxhdGZvcm0u
dGVzdIIyeG4tLW44ajZkczUzbHd3a3JxaHYyOGEud3d3Mi5ub3Qtd2ViLXBsYXRm
b3JtLnRlc3SCMnd3dzIueG4tLW44ajZkczUzbHd3a3JxaHYyOGEubm90LXdlYi1w
bGF0Zm9ybS50ZXN0gjJ3d3cxLnhuLS1uOGo2ZHM1M2x3d2tycWh2MjhhLm5vdC13
ZWItcGxhdGZvcm0udGVzdII2eG4tLW44ajZkczUzbHd3a3JxaHYyOGEueG4tLWx2
ZS02bGFkLndlYi1wbGF0Zm9ybS50ZXN0gjZ4bi0tbHZlLTZsYWQueG4tLW44ajZk
czUzbHd3a3JxaHYyOGEud2ViLXBsYXRmb3JtLnRlc3SCOnhuLS1sdmUtNmxhZC54
bi0tbjhqNmRzNTNsd3drcnFodjI4YS5ub3Qtd2ViLXBsYXRmb3JtLnRlc3SCOnhu
LS1uOGo2ZHM1M2x3d2tycWh2MjhhLnhuLS1sdmUtNmxhZC5ub3Qtd2ViLXBsYXRm
b3JtLnRlc3SCQXhuLS1uOGo2ZHM1M2x3d2tycWh2MjhhLnhuLS1uOGo2ZHM1M2x3
d2tycWh2MjhhLndlYi1wbGF0Zm9ybS50ZXN0gkV4bi0tbjhqNmRzNTNsd3drcnFo
djI4YS54bi0tbjhqNmRzNTNsd3drcnFodjI4YS5ub3Qtd2ViLXBsYXRmb3JtLnRl
c3QwDQYJKoZIhvcNAQELBQADggEBAG3k5Ra4vgeNeq1VxogAQueF2mR/smBki2ut
ia6TKVo2pp8BJnFI8QIr7Mtvl7MwM2j5MLIAOFT8pjH++7AyD9XnhMfyXIIgSLqQ
1w+iZY9WC9keI3Vq0VAvNBFdbiXDGT666jz+V4wjNFDmKIigUIfP7XODDowd553J
/Z2GEXKC7GxiOY3q8EuQvYJ+3ZtrKnI6D2pPIews1QupZ4l+Xvhi8sJc2suHUwc0
o6j8qAx9g4kbTwQfHfhMMmHZfqzl1UhBEwq6O5oM7UIBQYq5VchTQiDTlRHhK5nW
Eos17qrtD+dBhbWThKulXeP0it5bW6oOAwyTbkmivuevGOv313s=
-----END CERTIFICATE-----
