Certificate:
    Data:
        Version: 3 (0x2)
        Serial Number: 640741 (0x9c6e5)
        Signature Algorithm: sha256WithRSAEncryption
        Issuer: CN=web-platform-tests
        Validity
            Not Before: Sep 12 00:47:19 2023 GMT
            Not After : Sep 11 00:47:19 2024 GMT
        Subject: CN=web-platform.test
        Subject Public Key Info:
            Public Key Algorithm: rsaEncryption
                RSA Public-Key: (2048 bit)
                Modulus:
                    00:b5:9c:47:64:1e:78:2a:06:23:c4:8e:18:9a:fa:
                    65:5c:07:be:e9:ab:20:78:5e:e4:88:73:04:5a:c8:
                    80:27:6d:35:fc:58:ed:40:c0:0d:38:c1:7c:5f:c8:
                    96:f3:91:38:26:b3:5b:70:f4:28:ed:83:83:71:db:
                    44:03:39:f2:df:16:e4:0b:ff:2a:e4:9e:56:3f:3d:
                    cf:77:5d:6b:c2:e4:e9:5b:5d:1f:5b:d4:89:56:7b:
                    6a:10:96:a4:2d:9f:d3:7a:c9:fd:66:73:c4:e5:33:
                    d5:7d:07:b9:33:0a:31:b9:1c:13:14:40:74:56:9c:
                    1a:6d:46:42:74:92:7f:0e:ad:f8:c2:c2:8f:ba:fb:
                    65:69:5a:0f:aa:36:e3:96:8a:1f:d5:74:98:f0:42:
                    c5:77:00:3c:2e:47:a0:2d:22:0f:fe:f3:8a:85:f0:
                    22:65:d7:51:8e:d1:b9:99:8c:e6:dc:62:32:a1:04:
                    e5:51:5c:fc:cc:a4:14:34:b7:35:1a:e2:e4:7d:b8:
                    c6:08:27:37:95:a3:5b:41:f2:d3:68:9f:9b:04:85:
                    bc:5f:9f:11:c9:e2:1a:55:7d:cd:62:35:87:ad:ae:
                    55:fe:3f:88:b4:68:82:a6:2d:57:6a:57:01:b8:f0:
                    22:84:42:bf:fd:bc:52:ce:03:15:fe:b4:35:52:35:
                    4c:cd
                Exponent: 65537 (0x10001)
        X509v3 extensions:
            X509v3 Basic Constraints: 
                CA:FALSE
            X509v3 Subject Key Identifier: 
                8C:6B:B4:12:01:78:DC:2B:78:9F:58:EC:38:00:49:12:7A:CB:FE:AA
            X509v3 Authority Key Identifier: 
                keyid:2F:CE:56:15:27:62:06:28:A0:B3:9C:A4:75:58:F6:0D:87:59:20:D8

            X509v3 Key Usage: 
                Digital Signature, Non Repudiation, Key Encipherment
            X509v3 Extended Key Usage: 
                TLS Web Server Authentication
            X509v3 Subject Alternative Name: 
                DNS:web-platform.test, DNS:www.web-platform.test, DNS:not-web-platform.test, DNS:www1.web-platform.test, DNS:www2.web-platform.test, DNS:www.not-web-platform.test, DNS:www.www.web-platform.test, DNS:www.www2.web-platform.test, DNS:www2.www.web-platform.test, DNS:www.www1.web-platform.test, DNS:www2.not-web-platform.test, DNS:www1.www.web-platform.test, DNS:www1.not-web-platform.test, DNS:www2.www2.web-platform.test, DNS:www1.www1.web-platform.test, DNS:www1.www2.web-platform.test, DNS:www2.www1.web-platform.test, DNS:www.www.not-web-platform.test, DNS:www1.www.not-web-platform.test, DNS:www.www1.not-web-platform.test, DNS:www.www2.not-web-platform.test, DNS:xn--lve-6lad.web-platform.test, DNS:www2.www.not-web-platform.test, DNS:www1.www2.not-web-platform.test, DNS:www2.www2.not-web-platform.test, DNS:www2.www1.not-web-platform.test, DNS:www1.www1.not-web-platform.test, DNS:www.xn--lve-6lad.web-platform.test, DNS:xn--lve-6lad.www.web-platform.test, DNS:xn--lve-6lad.not-web-platform.test, DNS:www2.xn--lve-6lad.web-platform.test, DNS:xn--lve-6lad.www2.web-platform.test, DNS:www1.xn--lve-6lad.web-platform.test, DNS:xn--lve-6lad.www1.web-platform.test, DNS:xn--lve-6lad.www.not-web-platform.test, DNS:www.xn--lve-6lad.not-web-platform.test, DNS:www2.xn--lve-6lad.not-web-platform.test, DNS:www1.xn--lve-6lad.not-web-platform.test, DNS:xn--lve-6lad.www1.not-web-platform.test, DNS:xn--lve-6lad.www2.not-web-platform.test, DNS:xn--n8j6ds53lwwkrqhv28a.web-platform.test, DNS:xn--lve-6lad.xn--lve-6lad.web-platform.test, DNS:xn--n8j6ds53lwwkrqhv28a.www.web-platform.test, DNS:xn--n8j6ds53lwwkrqhv28a.not-web-platform.test, DNS:www.xn--n8j6ds53lwwkrqhv28a.web-platform.test, DNS:xn--n8j6ds53lwwkrqhv28a.www2.web-platform.test, DNS:xn--n8j6ds53lwwkrqhv28a.www1.web-platform.test, DNS:www2.xn--n8j6ds53lwwkrqhv28a.web-platform.test, DNS:www1.xn--n8j6ds53lwwkrqhv28a.web-platform.test, DNS:xn--lve-6lad.xn--lve-6lad.not-web-platform.test, DNS:xn--n8j6ds53lwwkrqhv28a.www.not-web-platform.test, DNS:www.xn--n8j6ds53lwwkrqhv28a.not-web-platform.test, DNS:www1.xn--n8j6ds53lwwkrqhv28a.not-web-platform.test, DNS:xn--n8j6ds53lwwkrqhv28a.www2.not-web-platform.test, DNS:xn--n8j6ds53lwwkrqhv28a.www1.not-web-platform.test, DNS:www2.xn--n8j6ds53lwwkrqhv28a.not-web-platform.test, DNS:xn--n8j6ds53lwwkrqhv28a.xn--lve-6lad.web-platform.test, DNS:xn--lve-6lad.xn--n8j6ds53lwwkrqhv28a.web-platform.test, DNS:xn--lve-6lad.xn--n8j6ds53lwwkrqhv28a.not-web-platform.test, DNS:xn--n8j6ds53lwwkrqhv28a.xn--lve-6lad.not-web-platform.test, DNS:xn--n8j6ds53lwwkrqhv28a.xn--n8j6ds53lwwkrqhv28a.web-platform.test, DNS:xn--n8j6ds53lwwkrqhv28a.xn--n8j6ds53lwwkrqhv28a.not-web-platform.test
    Signature Algorithm: sha256WithRSAEncryption
         89:74:5b:31:67:f5:72:96:7a:32:f5:b4:9e:d3:09:39:a5:a6:
         8b:a6:51:8c:42:83:77:5a:b3:9f:92:a3:61:80:d8:3a:3c:98:
         96:35:eb:bf:db:74:4e:a4:35:f1:af:cd:e0:19:ee:b1:b5:ea:
         ff:ef:96:56:7f:68:70:1a:74:24:e7:66:1a:52:f2:66:48:6a:
         15:f4:c1:a4:5e:09:ea:41:17:fc:71:1b:a6:63:2d:f6:ee:89:
         83:96:0c:e4:61:e0:6e:c2:cd:cb:77:c2:e5:68:5d:c3:37:d2:
         77:18:c9:1c:ee:95:3c:41:17:1e:bd:02:d9:85:e3:d4:18:d3:
         47:0b:98:ed:c5:2e:ad:a9:24:16:5e:b4:42:66:c1:78:ce:1f:
         01:39:d3:75:cd:78:cc:da:a0:58:e2:df:b7:38:8a:c2:66:46:
         1c:9b:cb:15:10:b4:0c:b6:ef:c7:c3:18:bd:84:ec:6b:ef:9a:
         86:35:96:f1:ba:53:ce:96:bf:12:bf:e1:ac:13:49:8c:87:0b:
         c6:b8:b0:84:f1:ea:0c:4e:04:3f:51:4a:56:88:34:7d:f9:9b:
         e3:dc:4b:fe:57:b3:ed:3d:4e:06:bc:0f:e7:bf:bf:bd:c6:43:
         dc:47:aa:a0:34:df:7b:66:84:c2:32:54:16:f7:56:ee:68:7c:
         cd:44:99:d9
-----BEGIN CERTIFICATE-----
MIIMsjCCC5qgAwIBAgIDCcblMA0GCSqGSIb3DQEBCwUAMB0xGzAZBgNVBAMMEndl
Yi1wbGF0Zm9ybS10ZXN0czAeFw0yMzA5MTIwMDQ3MTlaFw0yNDA5MTEwMDQ3MTla
MBwxGjAYBgNVBAMMEXdlYi1wbGF0Zm9ybS50ZXN0MIIBIjANBgkqhkiG9w0BAQEF
AAOCAQ8AMIIBCgKCAQEAtZxHZB54KgYjxI4YmvplXAe+6asgeF7kiHMEWsiAJ201
/FjtQMANOMF8X8iW85E4JrNbcPQo7YODcdtEAzny3xbkC/8q5J5WPz3Pd11rwuTp
W10fW9SJVntqEJakLZ/Tesn9ZnPE5TPVfQe5MwoxuRwTFEB0VpwabUZCdJJ/Dq34
wsKPuvtlaVoPqjbjloof1XSY8ELFdwA8LkegLSIP/vOKhfAiZddRjtG5mYzm3GIy
oQTlUVz8zKQUNLc1GuLkfbjGCCc3laNbQfLTaJ+bBIW8X58RyeIaVX3NYjWHra5V
/j+ItGiCpi1XalcBuPAihEK//bxSzgMV/rQ1UjVMzQIDAQABo4IJ+jCCCfYwCQYD
VR0TBAIwADAdBgNVHQ4EFgQUjGu0EgF43Ct4n1jsOABJEnrL/qowHwYDVR0jBBgw
FoAUL85WFSdiBiigs5ykdVj2DYdZINgwCwYDVR0PBAQDAgXgMBMGA1UdJQQMMAoG
CCsGAQUFBwMBMIIJhQYDVR0RBIIJfDCCCXiCEXdlYi1wbGF0Zm9ybS50ZXN0ghV3
d3cud2ViLXBsYXRmb3JtLnRlc3SCFW5vdC13ZWItcGxhdGZvcm0udGVzdIIWd3d3
MS53ZWItcGxhdGZvcm0udGVzdIIWd3d3Mi53ZWItcGxhdGZvcm0udGVzdIIZd3d3
Lm5vdC13ZWItcGxhdGZvcm0udGVzdIIZd3d3Lnd3dy53ZWItcGxhdGZvcm0udGVz
dIIad3d3Lnd3dzIud2ViLXBsYXRmb3JtLnRlc3SCGnd3dzIud3d3LndlYi1wbGF0
Zm9ybS50ZXN0ghp3d3cud3d3MS53ZWItcGxhdGZvcm0udGVzdIIad3d3Mi5ub3Qt
d2ViLXBsYXRmb3JtLnRlc3SCGnd3dzEud3d3LndlYi1wbGF0Zm9ybS50ZXN0ghp3
d3cxLm5vdC13ZWItcGxhdGZvcm0udGVzdIIbd3d3Mi53d3cyLndlYi1wbGF0Zm9y
bS50ZXN0ght3d3cxLnd3dzEud2ViLXBsYXRmb3JtLnRlc3SCG3d3dzEud3d3Mi53
ZWItcGxhdGZvcm0udGVzdIIbd3d3Mi53d3cxLndlYi1wbGF0Zm9ybS50ZXN0gh13
d3cud3d3Lm5vdC13ZWItcGxhdGZvcm0udGVzdIIed3d3MS53d3cubm90LXdlYi1w
bGF0Zm9ybS50ZXN0gh53d3cud3d3MS5ub3Qtd2ViLXBsYXRmb3JtLnRlc3SCHnd3
dy53d3cyLm5vdC13ZWItcGxhdGZvcm0udGVzdIIeeG4tLWx2ZS02bGFkLndlYi1w
bGF0Zm9ybS50ZXN0gh53d3cyLnd3dy5ub3Qtd2ViLXBsYXRmb3JtLnRlc3SCH3d3
dzEud3d3Mi5ub3Qtd2ViLXBsYXRmb3JtLnRlc3SCH3d3dzIud3d3Mi5ub3Qtd2Vi
LXBsYXRmb3JtLnRlc3SCH3d3dzIud3d3MS5ub3Qtd2ViLXBsYXRmb3JtLnRlc3SC
H3d3dzEud3d3MS5ub3Qtd2ViLXBsYXRmb3JtLnRlc3SCInd3dy54bi0tbHZlLTZs
YWQud2ViLXBsYXRmb3JtLnRlc3SCInhuLS1sdmUtNmxhZC53d3cud2ViLXBsYXRm
b3JtLnRlc3SCInhuLS1sdmUtNmxhZC5ub3Qtd2ViLXBsYXRmb3JtLnRlc3SCI3d3
dzIueG4tLWx2ZS02bGFkLndlYi1wbGF0Zm9ybS50ZXN0giN4bi0tbHZlLTZsYWQu
d3d3Mi53ZWItcGxhdGZvcm0udGVzdIIjd3d3MS54bi0tbHZlLTZsYWQud2ViLXBs
YXRmb3JtLnRlc3SCI3huLS1sdmUtNmxhZC53d3cxLndlYi1wbGF0Zm9ybS50ZXN0
giZ4bi0tbHZlLTZsYWQud3d3Lm5vdC13ZWItcGxhdGZvcm0udGVzdIImd3d3Lnhu
LS1sdmUtNmxhZC5ub3Qtd2ViLXBsYXRmb3JtLnRlc3SCJ3d3dzIueG4tLWx2ZS02
bGFkLm5vdC13ZWItcGxhdGZvcm0udGVzdIInd3d3MS54bi0tbHZlLTZsYWQubm90
LXdlYi1wbGF0Zm9ybS50ZXN0gid4bi0tbHZlLTZsYWQud3d3MS5ub3Qtd2ViLXBs
YXRmb3JtLnRlc3SCJ3huLS1sdmUtNmxhZC53d3cyLm5vdC13ZWItcGxhdGZvcm0u
dGVzdIIpeG4tLW44ajZkczUzbHd3a3JxaHYyOGEud2ViLXBsYXRmb3JtLnRlc3SC
K3huLS1sdmUtNmxhZC54bi0tbHZlLTZsYWQud2ViLXBsYXRmb3JtLnRlc3SCLXhu
LS1uOGo2ZHM1M2x3d2tycWh2MjhhLnd3dy53ZWItcGxhdGZvcm0udGVzdIIteG4t
LW44ajZkczUzbHd3a3JxaHYyOGEubm90LXdlYi1wbGF0Zm9ybS50ZXN0gi13d3cu
eG4tLW44ajZkczUzbHd3a3JxaHYyOGEud2ViLXBsYXRmb3JtLnRlc3SCLnhuLS1u
OGo2ZHM1M2x3d2tycWh2MjhhLnd3dzIud2ViLXBsYXRmb3JtLnRlc3SCLnhuLS1u
OGo2ZHM1M2x3d2tycWh2MjhhLnd3dzEud2ViLXBsYXRmb3JtLnRlc3SCLnd3dzIu
eG4tLW44ajZkczUzbHd3a3JxaHYyOGEud2ViLXBsYXRmb3JtLnRlc3SCLnd3dzEu
eG4tLW44ajZkczUzbHd3a3JxaHYyOGEud2ViLXBsYXRmb3JtLnRlc3SCL3huLS1s
dmUtNmxhZC54bi0tbHZlLTZsYWQubm90LXdlYi1wbGF0Zm9ybS50ZXN0gjF4bi0t
bjhqNmRzNTNsd3drcnFodjI4YS53d3cubm90LXdlYi1wbGF0Zm9ybS50ZXN0gjF3
d3cueG4tLW44ajZkczUzbHd3a3JxaHYyOGEubm90LXdlYi1wbGF0Zm9ybS50ZXN0
gjJ3d3cxLnhuLS1uOGo2ZHM1M2x3d2tycWh2MjhhLm5vdC13ZWItcGxhdGZvcm0u
dGVzdIIyeG4tLW44ajZkczUzbHd3a3JxaHYyOGEud3d3Mi5ub3Qtd2ViLXBsYXRm
b3JtLnRlc3SCMnhuLS1uOGo2ZHM1M2x3d2tycWh2MjhhLnd3dzEubm90LXdlYi1w
bGF0Zm9ybS50ZXN0gjJ3d3cyLnhuLS1uOGo2ZHM1M2x3d2tycWh2MjhhLm5vdC13
ZWItcGxhdGZvcm0udGVzdII2eG4tLW44ajZkczUzbHd3a3JxaHYyOGEueG4tLWx2
ZS02bGFkLndlYi1wbGF0Zm9ybS50ZXN0gjZ4bi0tbHZlLTZsYWQueG4tLW44ajZk
czUzbHd3a3JxaHYyOGEud2ViLXBsYXRmb3JtLnRlc3SCOnhuLS1sdmUtNmxhZC54
bi0tbjhqNmRzNTNsd3drcnFodjI4YS5ub3Qtd2ViLXBsYXRmb3JtLnRlc3SCOnhu
LS1uOGo2ZHM1M2x3d2tycWh2MjhhLnhuLS1sdmUtNmxhZC5ub3Qtd2ViLXBsYXRm
b3JtLnRlc3SCQXhuLS1uOGo2ZHM1M2x3d2tycWh2MjhhLnhuLS1uOGo2ZHM1M2x3
d2tycWh2MjhhLndlYi1wbGF0Zm9ybS50ZXN0gkV4bi0tbjhqNmRzNTNsd3drcnFo
djI4YS54bi0tbjhqNmRzNTNsd3drcnFodjI4YS5ub3Qtd2ViLXBsYXRmb3JtLnRl
c3QwDQYJKoZIhvcNAQELBQADggEBAIl0WzFn9XKWejL1tJ7TCTmlpoumUYxCg3da
s5+So2GA2Do8mJY167/bdE6kNfGvzeAZ7rG16v/vllZ/aHAadCTnZhpS8mZIahX0
waReCepBF/xxG6ZjLfbuiYOWDORh4G7Czct3wuVoXcM30ncYyRzulTxBFx69AtmF
49QY00cLmO3FLq2pJBZetEJmwXjOHwE503XNeMzaoFji37c4isJmRhybyxUQtAy2
78fDGL2E7GvvmoY1lvG6U86WvxK/4awTSYyHC8a4sITx6gxOBD9RSlaINH35m+Pc
S/5Xs+09Tga8D+e/v73GQ9xHqqA033tmhMIyVBb3Vu5ofM1Emdk=
-----END CERTIFICATE-----
