Certificate:
    Data:
        Version: 3 (0x2)
        Serial Number: 98644 (0x18154)
        Signature Algorithm: sha256WithRSAEncryption
        Issuer: CN=web-platform-tests
        Validity
            Not Before: Dec 12 01:21:42 2025 GMT
            Not After : Dec 12 01:21:42 2026 GMT
        Subject: CN=web-platform.test
        Subject Public Key Info:
            Public Key Algorithm: rsaEncryption
                Public-Key: (2048 bit)
                Modulus:
                    00:f1:6e:84:1d:e8:27:48:42:9d:18:47:7b:2f:58:
                    79:5a:85:c4:a5:68:95:15:5a:4c:7c:c7:e0:e6:1e:
                    3e:f7:d0:cb:72:1a:61:c8:5c:2e:1d:97:da:ee:3f:
                    4f:73:08:3e:e3:91:53:49:e1:ad:75:81:f7:26:b1:
                    82:13:08:00:38:90:90:0d:93:91:24:a0:c8:7f:cf:
                    78:8a:3d:e2:a9:80:93:de:3b:e7:5c:e6:be:6f:6a:
                    5d:db:69:5a:8f:1d:a0:65:87:2d:76:45:3f:63:2f:
                    ff:5b:18:dd:4e:33:d5:33:5c:f2:1c:6d:bb:d7:d8:
                    6c:ee:19:86:53:50:00:af:ab:c0:ad:eb:67:41:38:
                    e5:e7:92:8d:16:98:42:c2:01:f9:70:d2:40:7c:89:
                    da:98:6b:ef:00:79:c8:6e:52:d2:3d:4e:6a:1c:ac:
                    b6:65:29:e4:49:9f:0f:cb:91:c2:34:83:87:7e:10:
                    35:66:ab:da:f9:4f:bd:19:3a:68:56:29:5d:98:4f:
                    34:cc:00:b7:23:8a:77:15:e2:b0:a6:2e:09:c7:c0:
                    7f:a6:c2:08:09:d6:a5:50:34:fb:30:0b:51:9a:7b:
                    41:a5:ad:e4:90:e9:d5:74:7d:38:f5:e1:bf:e8:f7:
                    bd:6b:a7:0e:5b:80:da:03:9f:44:4a:40:c4:f2:d3:
                    a2:35
                Exponent: 65537 (0x10001)
        X509v3 extensions:
            X509v3 Basic Constraints: 
                CA:FALSE
            X509v3 Subject Key Identifier: 
                D8:C1:7D:97:62:82:11:96:64:C7:DD:03:CD:E9:02:A1:EE:26:93:26
            X509v3 Authority Key Identifier: 
                40:08:0F:FD:62:65:75:A3:CC:65:04:F4:AA:9F:44:93:34:74:1F:E9
            X509v3 Key Usage: 
                Digital Signature, Non Repudiation, Key Encipherment
            X509v3 Extended Key Usage: 
                TLS Web Server Authentication
            X509v3 Subject Alternative Name: 
                DNS:web-platform.test, DNS:www.web-platform.test, DNS:not-web-platform.test, DNS:www2.web-platform.test, DNS:www1.web-platform.test, DNS:www.not-web-platform.test, DNS:www.www.web-platform.test, DNS:www1.www.web-platform.test, DNS:www.www1.web-platform.test, DNS:www2.www.web-platform.test, DNS:www2.not-web-platform.test, DNS:www.www2.web-platform.test, DNS:www1.not-web-platform.test, DNS:www2.www1.web-platform.test, DNS:www1.www1.web-platform.test, DNS:www2.www2.web-platform.test, DNS:www1.www2.web-platform.test, DNS:www.www.not-web-platform.test, DNS:www1.www.not-web-platform.test, DNS:www2.www.not-web-platform.test, DNS:www.www1.not-web-platform.test, DNS:xn--lve-6lad.web-platform.test, DNS:www.www2.not-web-platform.test, DNS:www2.www2.not-web-platform.test, DNS:www2.www1.not-web-platform.test, DNS:www1.www2.not-web-platform.test, DNS:www1.www1.not-web-platform.test, DNS:xn--lve-6lad.not-web-platform.test, DNS:xn--lve-6lad.www.web-platform.test, DNS:www.xn--lve-6lad.web-platform.test, DNS:www1.xn--lve-6lad.web-platform.test, DNS:xn--lve-6lad.www2.web-platform.test, DNS:xn--lve-6lad.www1.web-platform.test, DNS:www2.xn--lve-6lad.web-platform.test, DNS:www.xn--lve-6lad.not-web-platform.test, DNS:xn--lve-6lad.www.not-web-platform.test, DNS:www2.xn--lve-6lad.not-web-platform.test, DNS:xn--lve-6lad.www1.not-web-platform.test, DNS:xn--lve-6lad.www2.not-web-platform.test, DNS:www1.xn--lve-6lad.not-web-platform.test, DNS:xn--n8j6ds53lwwkrqhv28a.web-platform.test, DNS:xn--lve-6lad.xn--lve-6lad.web-platform.test, DNS:xn--n8j6ds53lwwkrqhv28a.not-web-platform.test, DNS:www.xn--n8j6ds53lwwkrqhv28a.web-platform.test, DNS:xn--n8j6ds53lwwkrqhv28a.www.web-platform.test, DNS:xn--n8j6ds53lwwkrqhv28a.www1.web-platform.test, DNS:xn--n8j6ds53lwwkrqhv28a.www2.web-platform.test, DNS:www1.xn--n8j6ds53lwwkrqhv28a.web-platform.test, DNS:www2.xn--n8j6ds53lwwkrqhv28a.web-platform.test, DNS:xn--lve-6lad.xn--lve-6lad.not-web-platform.test, DNS:www.xn--n8j6ds53lwwkrqhv28a.not-web-platform.test, DNS:xn--n8j6ds53lwwkrqhv28a.www.not-web-platform.test, DNS:xn--n8j6ds53lwwkrqhv28a.www1.not-web-platform.test, DNS:xn--n8j6ds53lwwkrqhv28a.www2.not-web-platform.test, DNS:www2.xn--n8j6ds53lwwkrqhv28a.not-web-platform.test, DNS:www1.xn--n8j6ds53lwwkrqhv28a.not-web-platform.test, DNS:xn--n8j6ds53lwwkrqhv28a.xn--lve-6lad.web-platform.test, DNS:xn--lve-6lad.xn--n8j6ds53lwwkrqhv28a.web-platform.test, DNS:xn--n8j6ds53lwwkrqhv28a.xn--lve-6lad.not-web-platform.test, DNS:xn--lve-6lad.xn--n8j6ds53lwwkrqhv28a.not-web-platform.test, DNS:xn--n8j6ds53lwwkrqhv28a.xn--n8j6ds53lwwkrqhv28a.web-platform.test, DNS:xn--n8j6ds53lwwkrqhv28a.xn--n8j6ds53lwwkrqhv28a.not-web-platform.test
    Signature Algorithm: sha256WithRSAEncryption
    Signature Value:
        23:7b:14:3d:5e:4b:38:26:14:1d:9a:fc:3e:80:f8:e3:bf:6d:
        1d:01:99:64:5e:a3:f6:51:d1:e5:65:dc:d7:9e:14:bc:f0:ce:
        68:e6:7a:33:78:f9:9c:88:2a:a2:02:24:ae:2f:af:fc:6b:cf:
        b5:a3:f5:1c:24:1a:2a:88:c3:f9:af:42:af:0c:bf:ad:53:09:
        5a:0e:8c:bc:4a:c4:9a:73:bf:c1:81:2f:a3:f9:d7:88:b2:0b:
        92:c8:e4:0b:bf:ec:b3:5d:65:99:0e:1c:14:e1:fd:cf:f7:fd:
        c7:6b:4f:6c:0a:29:4c:7c:00:39:f7:6f:f2:6c:72:3b:cd:29:
        15:82:7d:57:e1:70:e3:65:62:7a:16:2f:98:2e:c3:e1:ab:b9:
        bc:e5:cc:88:71:17:48:be:49:d6:9a:e3:99:e6:f4:f0:de:bd:
        8f:0e:21:67:5e:8b:f2:a2:be:93:50:e2:ee:f7:86:d2:c3:10:
        72:c6:c9:f8:01:66:8c:c7:18:59:86:dd:b2:06:ec:13:50:f1:
        cc:74:bf:00:7c:37:bf:04:25:3b:c2:e6:66:6f:4b:98:9f:4c:
        1e:61:45:9e:3e:7e:1a:1c:bf:b7:1a:36:5b:02:7e:9e:8a:48:
        cf:d3:a6:a8:b0:80:55:89:2d:05:f6:80:a4:80:15:eb:71:86:
        92:dd:3f:25
-----BEGIN CERTIFICATE-----
MIIMsjCCC5qgAwIBAgIDAYFUMA0GCSqGSIb3DQEBCwUAMB0xGzAZBgNVBAMMEndl
Yi1wbGF0Zm9ybS10ZXN0czAeFw0yNTEyMTIwMTIxNDJaFw0yNjEyMTIwMTIxNDJa
MBwxGjAYBgNVBAMMEXdlYi1wbGF0Zm9ybS50ZXN0MIIBIjANBgkqhkiG9w0BAQEF
AAOCAQ8AMIIBCgKCAQEA8W6EHegnSEKdGEd7L1h5WoXEpWiVFVpMfMfg5h4+99DL
chphyFwuHZfa7j9Pcwg+45FTSeGtdYH3JrGCEwgAOJCQDZORJKDIf894ij3iqYCT
3jvnXOa+b2pd22lajx2gZYctdkU/Yy//WxjdTjPVM1zyHG2719hs7hmGU1AAr6vA
retnQTjl55KNFphCwgH5cNJAfInamGvvAHnIblLSPU5qHKy2ZSnkSZ8Py5HCNIOH
fhA1Zqva+U+9GTpoVildmE80zAC3I4p3FeKwpi4Jx8B/psIICdalUDT7MAtRmntB
pa3kkOnVdH049eG/6Pe9a6cOW4DaA59ESkDE8tOiNQIDAQABo4IJ+jCCCfYwCQYD
VR0TBAIwADAdBgNVHQ4EFgQU2MF9l2KCEZZkx90DzekCoe4mkyYwHwYDVR0jBBgw
FoAUQAgP/WJldaPMZQT0qp9EkzR0H+kwCwYDVR0PBAQDAgXgMBMGA1UdJQQMMAoG
CCsGAQUFBwMBMIIJhQYDVR0RBIIJfDCCCXiCEXdlYi1wbGF0Zm9ybS50ZXN0ghV3
d3cud2ViLXBsYXRmb3JtLnRlc3SCFW5vdC13ZWItcGxhdGZvcm0udGVzdIIWd3d3
Mi53ZWItcGxhdGZvcm0udGVzdIIWd3d3MS53ZWItcGxhdGZvcm0udGVzdIIZd3d3
Lm5vdC13ZWItcGxhdGZvcm0udGVzdIIZd3d3Lnd3dy53ZWItcGxhdGZvcm0udGVz
dIIad3d3MS53d3cud2ViLXBsYXRmb3JtLnRlc3SCGnd3dy53d3cxLndlYi1wbGF0
Zm9ybS50ZXN0ghp3d3cyLnd3dy53ZWItcGxhdGZvcm0udGVzdIIad3d3Mi5ub3Qt
d2ViLXBsYXRmb3JtLnRlc3SCGnd3dy53d3cyLndlYi1wbGF0Zm9ybS50ZXN0ghp3
d3cxLm5vdC13ZWItcGxhdGZvcm0udGVzdIIbd3d3Mi53d3cxLndlYi1wbGF0Zm9y
bS50ZXN0ght3d3cxLnd3dzEud2ViLXBsYXRmb3JtLnRlc3SCG3d3dzIud3d3Mi53
ZWItcGxhdGZvcm0udGVzdIIbd3d3MS53d3cyLndlYi1wbGF0Zm9ybS50ZXN0gh13
d3cud3d3Lm5vdC13ZWItcGxhdGZvcm0udGVzdIIed3d3MS53d3cubm90LXdlYi1w
bGF0Zm9ybS50ZXN0gh53d3cyLnd3dy5ub3Qtd2ViLXBsYXRmb3JtLnRlc3SCHnd3
dy53d3cxLm5vdC13ZWItcGxhdGZvcm0udGVzdIIeeG4tLWx2ZS02bGFkLndlYi1w
bGF0Zm9ybS50ZXN0gh53d3cud3d3Mi5ub3Qtd2ViLXBsYXRmb3JtLnRlc3SCH3d3
dzIud3d3Mi5ub3Qtd2ViLXBsYXRmb3JtLnRlc3SCH3d3dzIud3d3MS5ub3Qtd2Vi
LXBsYXRmb3JtLnRlc3SCH3d3dzEud3d3Mi5ub3Qtd2ViLXBsYXRmb3JtLnRlc3SC
H3d3dzEud3d3MS5ub3Qtd2ViLXBsYXRmb3JtLnRlc3SCInhuLS1sdmUtNmxhZC5u
b3Qtd2ViLXBsYXRmb3JtLnRlc3SCInhuLS1sdmUtNmxhZC53d3cud2ViLXBsYXRm
b3JtLnRlc3SCInd3dy54bi0tbHZlLTZsYWQud2ViLXBsYXRmb3JtLnRlc3SCI3d3
dzEueG4tLWx2ZS02bGFkLndlYi1wbGF0Zm9ybS50ZXN0giN4bi0tbHZlLTZsYWQu
d3d3Mi53ZWItcGxhdGZvcm0udGVzdIIjeG4tLWx2ZS02bGFkLnd3dzEud2ViLXBs
YXRmb3JtLnRlc3SCI3d3dzIueG4tLWx2ZS02bGFkLndlYi1wbGF0Zm9ybS50ZXN0
giZ3d3cueG4tLWx2ZS02bGFkLm5vdC13ZWItcGxhdGZvcm0udGVzdIImeG4tLWx2
ZS02bGFkLnd3dy5ub3Qtd2ViLXBsYXRmb3JtLnRlc3SCJ3d3dzIueG4tLWx2ZS02
bGFkLm5vdC13ZWItcGxhdGZvcm0udGVzdIIneG4tLWx2ZS02bGFkLnd3dzEubm90
LXdlYi1wbGF0Zm9ybS50ZXN0gid4bi0tbHZlLTZsYWQud3d3Mi5ub3Qtd2ViLXBs
YXRmb3JtLnRlc3SCJ3d3dzEueG4tLWx2ZS02bGFkLm5vdC13ZWItcGxhdGZvcm0u
dGVzdIIpeG4tLW44ajZkczUzbHd3a3JxaHYyOGEud2ViLXBsYXRmb3JtLnRlc3SC
K3huLS1sdmUtNmxhZC54bi0tbHZlLTZsYWQud2ViLXBsYXRmb3JtLnRlc3SCLXhu
LS1uOGo2ZHM1M2x3d2tycWh2MjhhLm5vdC13ZWItcGxhdGZvcm0udGVzdIItd3d3
LnhuLS1uOGo2ZHM1M2x3d2tycWh2MjhhLndlYi1wbGF0Zm9ybS50ZXN0gi14bi0t
bjhqNmRzNTNsd3drcnFodjI4YS53d3cud2ViLXBsYXRmb3JtLnRlc3SCLnhuLS1u
OGo2ZHM1M2x3d2tycWh2MjhhLnd3dzEud2ViLXBsYXRmb3JtLnRlc3SCLnhuLS1u
OGo2ZHM1M2x3d2tycWh2MjhhLnd3dzIud2ViLXBsYXRmb3JtLnRlc3SCLnd3dzEu
eG4tLW44ajZkczUzbHd3a3JxaHYyOGEud2ViLXBsYXRmb3JtLnRlc3SCLnd3dzIu
eG4tLW44ajZkczUzbHd3a3JxaHYyOGEud2ViLXBsYXRmb3JtLnRlc3SCL3huLS1s
dmUtNmxhZC54bi0tbHZlLTZsYWQubm90LXdlYi1wbGF0Zm9ybS50ZXN0gjF3d3cu
eG4tLW44ajZkczUzbHd3a3JxaHYyOGEubm90LXdlYi1wbGF0Zm9ybS50ZXN0gjF4
bi0tbjhqNmRzNTNsd3drcnFodjI4YS53d3cubm90LXdlYi1wbGF0Zm9ybS50ZXN0
gjJ4bi0tbjhqNmRzNTNsd3drcnFodjI4YS53d3cxLm5vdC13ZWItcGxhdGZvcm0u
dGVzdIIyeG4tLW44ajZkczUzbHd3a3JxaHYyOGEud3d3Mi5ub3Qtd2ViLXBsYXRm
b3JtLnRlc3SCMnd3dzIueG4tLW44ajZkczUzbHd3a3JxaHYyOGEubm90LXdlYi1w
bGF0Zm9ybS50ZXN0gjJ3d3cxLnhuLS1uOGo2ZHM1M2x3d2tycWh2MjhhLm5vdC13
ZWItcGxhdGZvcm0udGVzdII2eG4tLW44ajZkczUzbHd3a3JxaHYyOGEueG4tLWx2
ZS02bGFkLndlYi1wbGF0Zm9ybS50ZXN0gjZ4bi0tbHZlLTZsYWQueG4tLW44ajZk
czUzbHd3a3JxaHYyOGEud2ViLXBsYXRmb3JtLnRlc3SCOnhuLS1uOGo2ZHM1M2x3
d2tycWh2MjhhLnhuLS1sdmUtNmxhZC5ub3Qtd2ViLXBsYXRmb3JtLnRlc3SCOnhu
LS1sdmUtNmxhZC54bi0tbjhqNmRzNTNsd3drcnFodjI4YS5ub3Qtd2ViLXBsYXRm
b3JtLnRlc3SCQXhuLS1uOGo2ZHM1M2x3d2tycWh2MjhhLnhuLS1uOGo2ZHM1M2x3
d2tycWh2MjhhLndlYi1wbGF0Zm9ybS50ZXN0gkV4bi0tbjhqNmRzNTNsd3drcnFo
djI4YS54bi0tbjhqNmRzNTNsd3drcnFodjI4YS5ub3Qtd2ViLXBsYXRmb3JtLnRl
c3QwDQYJKoZIhvcNAQELBQADggEBACN7FD1eSzgmFB2a/D6A+OO/bR0BmWReo/ZR
0eVl3NeeFLzwzmjmejN4+ZyIKqICJK4vr/xrz7Wj9RwkGiqIw/mvQq8Mv61TCVoO
jLxKxJpzv8GBL6P514iyC5LI5Au/7LNdZZkOHBTh/c/3/cdrT2wKKUx8ADn3b/Js
cjvNKRWCfVfhcONlYnoWL5guw+GrubzlzIhxF0i+Sdaa45nm9PDevY8OIWdei/Ki
vpNQ4u73htLDEHLGyfgBZozHGFmG3bIG7BNQ8cx0vwB8N78EJTvC5mZvS5ifTB5h
RZ4+fhocv7caNlsCfp6KSM/TpqiwgFWJLQX2gKSAFetxhpLdPyU=
-----END CERTIFICATE-----
