Certificate:
    Data:
        Version: 3 (0x2)
        Serial Number: 657539 (0xa0883)
        Signature Algorithm: sha256WithRSAEncryption
        Issuer: CN=web-platform-tests
        Validity
            Not Before: Mar 12 01:50:23 2026 GMT
            Not After : Mar 12 01:50:23 2027 GMT
        Subject: CN=web-platform.test
        Subject Public Key Info:
            Public Key Algorithm: rsaEncryption
                Public-Key: (2048 bit)
                Modulus:
                    00:d2:14:eb:ce:2a:3e:eb:c3:56:1d:05:da:5f:f9:
                    7e:b5:8c:b2:da:1e:bc:af:de:c4:3a:8d:84:8b:5f:
                    58:83:0d:ea:4a:77:ed:b3:ff:4e:41:69:50:d6:fb:
                    20:7e:4a:f7:ca:1f:c7:4d:d0:c0:c4:76:d3:dc:08:
                    1c:14:a2:d2:c2:f1:36:5f:16:89:2d:a5:b8:41:18:
                    2f:33:13:bd:65:8b:82:28:f1:84:02:43:9d:ff:13:
                    0a:38:78:02:bc:40:7b:06:68:22:ed:db:52:7e:f1:
                    f8:bf:0b:47:1d:22:10:f9:34:f8:d5:10:6a:75:a7:
                    ca:35:3e:34:d8:41:66:10:92:ba:0a:c2:c1:43:11:
                    c9:05:b7:41:59:18:4c:57:6e:a0:a7:34:9b:5f:49:
                    a9:7b:09:de:d1:51:29:f7:f4:2a:a6:05:7b:3a:7b:
                    df:6d:3d:8e:83:7f:c0:83:d2:26:15:8f:28:09:3e:
                    8b:56:74:cf:66:91:95:d0:5b:e6:4d:49:67:b6:49:
                    b5:a6:fc:5e:f7:19:f5:5b:ca:f6:0a:ac:be:44:bb:
                    7d:01:4e:59:bf:7f:37:2a:24:f8:56:3e:dc:30:76:
                    47:82:8e:05:bb:cd:e7:d0:e2:c9:3f:92:9f:b4:93:
                    7b:2b:b6:e9:1c:a3:c0:67:49:70:8e:99:19:95:15:
                    85:71
                Exponent: 65537 (0x10001)
        X509v3 extensions:
            X509v3 Basic Constraints: 
                CA:FALSE
            X509v3 Subject Key Identifier: 
                67:F6:16:45:74:3B:DA:C5:42:12:B2:29:F2:53:75:DD:32:43:72:B4
            X509v3 Authority Key Identifier: 
                DE:3B:6C:F6:E0:57:84:CA:65:00:06:E5:6B:66:C0:22:23:A2:D1:AA
            X509v3 Key Usage: 
                Digital Signature, Non Repudiation, Key Encipherment
            X509v3 Extended Key Usage: 
                TLS Web Server Authentication
            X509v3 Subject Alternative Name: 
                DNS:web-platform.test, DNS:www.web-platform.test, DNS:not-web-platform.test, DNS:www2.web-platform.test, DNS:www1.web-platform.test, DNS:www.www.web-platform.test, DNS:www.not-web-platform.test, DNS:www1.www.web-platform.test, DNS:www1.not-web-platform.test, DNS:www2.www.web-platform.test, DNS:www.www2.web-platform.test, DNS:www2.not-web-platform.test, DNS:www.www1.web-platform.test, DNS:www2.www1.web-platform.test, DNS:www1.www2.web-platform.test, DNS:www1.www1.web-platform.test, DNS:www2.www2.web-platform.test, DNS:www.www.not-web-platform.test, DNS:www2.www.not-web-platform.test, DNS:xn--lve-6lad.web-platform.test, DNS:www.www2.not-web-platform.test, DNS:www.www1.not-web-platform.test, DNS:www1.www.not-web-platform.test, DNS:www1.www1.not-web-platform.test, DNS:www2.www1.not-web-platform.test, DNS:www2.www2.not-web-platform.test, DNS:www1.www2.not-web-platform.test, DNS:xn--lve-6lad.not-web-platform.test, DNS:xn--lve-6lad.www.web-platform.test, DNS:www.xn--lve-6lad.web-platform.test, DNS:xn--lve-6lad.www1.web-platform.test, DNS:xn--lve-6lad.www2.web-platform.test, DNS:www2.xn--lve-6lad.web-platform.test, DNS:www1.xn--lve-6lad.web-platform.test, DNS:xn--lve-6lad.www.not-web-platform.test, DNS:www.xn--lve-6lad.not-web-platform.test, DNS:www2.xn--lve-6lad.not-web-platform.test, DNS:xn--lve-6lad.www2.not-web-platform.test, DNS:xn--lve-6lad.www1.not-web-platform.test, DNS:www1.xn--lve-6lad.not-web-platform.test, DNS:xn--n8j6ds53lwwkrqhv28a.web-platform.test, DNS:xn--lve-6lad.xn--lve-6lad.web-platform.test, DNS:xn--n8j6ds53lwwkrqhv28a.not-web-platform.test, DNS:www.xn--n8j6ds53lwwkrqhv28a.web-platform.test, DNS:xn--n8j6ds53lwwkrqhv28a.www.web-platform.test, DNS:www2.xn--n8j6ds53lwwkrqhv28a.web-platform.test, DNS:www1.xn--n8j6ds53lwwkrqhv28a.web-platform.test, DNS:xn--n8j6ds53lwwkrqhv28a.www1.web-platform.test, DNS:xn--n8j6ds53lwwkrqhv28a.www2.web-platform.test, DNS:xn--lve-6lad.xn--lve-6lad.not-web-platform.test, DNS:www.xn--n8j6ds53lwwkrqhv28a.not-web-platform.test, DNS:xn--n8j6ds53lwwkrqhv28a.www.not-web-platform.test, DNS:www1.xn--n8j6ds53lwwkrqhv28a.not-web-platform.test, DNS:www2.xn--n8j6ds53lwwkrqhv28a.not-web-platform.test, DNS:xn--n8j6ds53lwwkrqhv28a.www1.not-web-platform.test, DNS:xn--n8j6ds53lwwkrqhv28a.www2.not-web-platform.test, DNS:xn--lve-6lad.xn--n8j6ds53lwwkrqhv28a.web-platform.test, DNS:xn--n8j6ds53lwwkrqhv28a.xn--lve-6lad.web-platform.test, DNS:xn--n8j6ds53lwwkrqhv28a.xn--lve-6lad.not-web-platform.test, DNS:xn--lve-6lad.xn--n8j6ds53lwwkrqhv28a.not-web-platform.test, DNS:xn--n8j6ds53lwwkrqhv28a.xn--n8j6ds53lwwkrqhv28a.web-platform.test, DNS:xn--n8j6ds53lwwkrqhv28a.xn--n8j6ds53lwwkrqhv28a.not-web-platform.test
    Signature Algorithm: sha256WithRSAEncryption
    Signature Value:
        15:88:7a:19:1e:06:ac:4b:35:c9:8d:a3:d3:3a:94:af:d7:2c:
        e0:8c:7c:f6:99:fb:84:13:ea:de:f1:54:02:e1:7f:19:97:62:
        71:cf:47:32:a6:78:24:8d:65:7b:81:d2:c7:2c:4c:e4:5f:11:
        89:d6:b6:b4:40:dd:7d:80:10:87:02:0e:98:2b:8a:53:ec:9b:
        5f:d7:4a:0f:c3:30:7f:99:59:ed:8a:3b:ef:61:a5:10:50:10:
        c5:87:e6:f3:2a:f4:ed:ef:c5:e7:2c:27:a5:4e:f7:78:c2:7a:
        4a:9d:b4:4e:ed:04:22:3e:01:4f:19:4a:3a:cd:07:72:c8:bd:
        08:5e:2c:0d:32:b3:1b:9a:54:95:55:f2:1e:f4:bc:62:4f:96:
        1e:97:d3:c5:39:38:68:7a:04:72:1b:10:4e:03:92:f5:98:b3:
        1f:ab:8e:8b:be:7e:49:d8:92:50:62:6a:7b:1b:c0:25:24:e0:
        59:81:d7:73:12:8f:52:65:ac:5d:8f:43:b5:ed:c5:35:75:c2:
        3f:00:c6:34:fb:bc:f6:45:11:11:4a:0b:2c:09:bc:36:ae:9b:
        72:12:0f:bf:15:9d:57:4a:f1:a4:5c:15:93:07:87:d2:07:7b:
        3b:bb:88:84:ac:92:19:3c:6f:ca:37:65:56:48:22:52:20:47:
        17:3c:87:69
-----BEGIN CERTIFICATE-----
MIIMsjCCC5qgAwIBAgIDCgiDMA0GCSqGSIb3DQEBCwUAMB0xGzAZBgNVBAMMEndl
Yi1wbGF0Zm9ybS10ZXN0czAeFw0yNjAzMTIwMTUwMjNaFw0yNzAzMTIwMTUwMjNa
MBwxGjAYBgNVBAMMEXdlYi1wbGF0Zm9ybS50ZXN0MIIBIjANBgkqhkiG9w0BAQEF
AAOCAQ8AMIIBCgKCAQEA0hTrzio+68NWHQXaX/l+tYyy2h68r97EOo2Ei19Ygw3q
Snfts/9OQWlQ1vsgfkr3yh/HTdDAxHbT3AgcFKLSwvE2XxaJLaW4QRgvMxO9ZYuC
KPGEAkOd/xMKOHgCvEB7Bmgi7dtSfvH4vwtHHSIQ+TT41RBqdafKNT402EFmEJK6
CsLBQxHJBbdBWRhMV26gpzSbX0mpewne0VEp9/QqpgV7OnvfbT2Og3/Ag9ImFY8o
CT6LVnTPZpGV0FvmTUlntkm1pvxe9xn1W8r2Cqy+RLt9AU5Zv383KiT4Vj7cMHZH
go4Fu83n0OLJP5KftJN7K7bpHKPAZ0lwjpkZlRWFcQIDAQABo4IJ+jCCCfYwCQYD
VR0TBAIwADAdBgNVHQ4EFgQUZ/YWRXQ72sVCErIp8lN13TJDcrQwHwYDVR0jBBgw
FoAU3jts9uBXhMplAAbla2bAIiOi0aowCwYDVR0PBAQDAgXgMBMGA1UdJQQMMAoG
CCsGAQUFBwMBMIIJhQYDVR0RBIIJfDCCCXiCEXdlYi1wbGF0Zm9ybS50ZXN0ghV3
d3cud2ViLXBsYXRmb3JtLnRlc3SCFW5vdC13ZWItcGxhdGZvcm0udGVzdIIWd3d3
Mi53ZWItcGxhdGZvcm0udGVzdIIWd3d3MS53ZWItcGxhdGZvcm0udGVzdIIZd3d3
Lnd3dy53ZWItcGxhdGZvcm0udGVzdIIZd3d3Lm5vdC13ZWItcGxhdGZvcm0udGVz
dIIad3d3MS53d3cud2ViLXBsYXRmb3JtLnRlc3SCGnd3dzEubm90LXdlYi1wbGF0
Zm9ybS50ZXN0ghp3d3cyLnd3dy53ZWItcGxhdGZvcm0udGVzdIIad3d3Lnd3dzIu
d2ViLXBsYXRmb3JtLnRlc3SCGnd3dzIubm90LXdlYi1wbGF0Zm9ybS50ZXN0ghp3
d3cud3d3MS53ZWItcGxhdGZvcm0udGVzdIIbd3d3Mi53d3cxLndlYi1wbGF0Zm9y
bS50ZXN0ght3d3cxLnd3dzIud2ViLXBsYXRmb3JtLnRlc3SCG3d3dzEud3d3MS53
ZWItcGxhdGZvcm0udGVzdIIbd3d3Mi53d3cyLndlYi1wbGF0Zm9ybS50ZXN0gh13
d3cud3d3Lm5vdC13ZWItcGxhdGZvcm0udGVzdIIed3d3Mi53d3cubm90LXdlYi1w
bGF0Zm9ybS50ZXN0gh54bi0tbHZlLTZsYWQud2ViLXBsYXRmb3JtLnRlc3SCHnd3
dy53d3cyLm5vdC13ZWItcGxhdGZvcm0udGVzdIIed3d3Lnd3dzEubm90LXdlYi1w
bGF0Zm9ybS50ZXN0gh53d3cxLnd3dy5ub3Qtd2ViLXBsYXRmb3JtLnRlc3SCH3d3
dzEud3d3MS5ub3Qtd2ViLXBsYXRmb3JtLnRlc3SCH3d3dzIud3d3MS5ub3Qtd2Vi
LXBsYXRmb3JtLnRlc3SCH3d3dzIud3d3Mi5ub3Qtd2ViLXBsYXRmb3JtLnRlc3SC
H3d3dzEud3d3Mi5ub3Qtd2ViLXBsYXRmb3JtLnRlc3SCInhuLS1sdmUtNmxhZC5u
b3Qtd2ViLXBsYXRmb3JtLnRlc3SCInhuLS1sdmUtNmxhZC53d3cud2ViLXBsYXRm
b3JtLnRlc3SCInd3dy54bi0tbHZlLTZsYWQud2ViLXBsYXRmb3JtLnRlc3SCI3hu
LS1sdmUtNmxhZC53d3cxLndlYi1wbGF0Zm9ybS50ZXN0giN4bi0tbHZlLTZsYWQu
d3d3Mi53ZWItcGxhdGZvcm0udGVzdIIjd3d3Mi54bi0tbHZlLTZsYWQud2ViLXBs
YXRmb3JtLnRlc3SCI3d3dzEueG4tLWx2ZS02bGFkLndlYi1wbGF0Zm9ybS50ZXN0
giZ4bi0tbHZlLTZsYWQud3d3Lm5vdC13ZWItcGxhdGZvcm0udGVzdIImd3d3Lnhu
LS1sdmUtNmxhZC5ub3Qtd2ViLXBsYXRmb3JtLnRlc3SCJ3d3dzIueG4tLWx2ZS02
bGFkLm5vdC13ZWItcGxhdGZvcm0udGVzdIIneG4tLWx2ZS02bGFkLnd3dzIubm90
LXdlYi1wbGF0Zm9ybS50ZXN0gid4bi0tbHZlLTZsYWQud3d3MS5ub3Qtd2ViLXBs
YXRmb3JtLnRlc3SCJ3d3dzEueG4tLWx2ZS02bGFkLm5vdC13ZWItcGxhdGZvcm0u
dGVzdIIpeG4tLW44ajZkczUzbHd3a3JxaHYyOGEud2ViLXBsYXRmb3JtLnRlc3SC
K3huLS1sdmUtNmxhZC54bi0tbHZlLTZsYWQud2ViLXBsYXRmb3JtLnRlc3SCLXhu
LS1uOGo2ZHM1M2x3d2tycWh2MjhhLm5vdC13ZWItcGxhdGZvcm0udGVzdIItd3d3
LnhuLS1uOGo2ZHM1M2x3d2tycWh2MjhhLndlYi1wbGF0Zm9ybS50ZXN0gi14bi0t
bjhqNmRzNTNsd3drcnFodjI4YS53d3cud2ViLXBsYXRmb3JtLnRlc3SCLnd3dzIu
eG4tLW44ajZkczUzbHd3a3JxaHYyOGEud2ViLXBsYXRmb3JtLnRlc3SCLnd3dzEu
eG4tLW44ajZkczUzbHd3a3JxaHYyOGEud2ViLXBsYXRmb3JtLnRlc3SCLnhuLS1u
OGo2ZHM1M2x3d2tycWh2MjhhLnd3dzEud2ViLXBsYXRmb3JtLnRlc3SCLnhuLS1u
OGo2ZHM1M2x3d2tycWh2MjhhLnd3dzIud2ViLXBsYXRmb3JtLnRlc3SCL3huLS1s
dmUtNmxhZC54bi0tbHZlLTZsYWQubm90LXdlYi1wbGF0Zm9ybS50ZXN0gjF3d3cu
eG4tLW44ajZkczUzbHd3a3JxaHYyOGEubm90LXdlYi1wbGF0Zm9ybS50ZXN0gjF4
bi0tbjhqNmRzNTNsd3drcnFodjI4YS53d3cubm90LXdlYi1wbGF0Zm9ybS50ZXN0
gjJ3d3cxLnhuLS1uOGo2ZHM1M2x3d2tycWh2MjhhLm5vdC13ZWItcGxhdGZvcm0u
dGVzdIIyd3d3Mi54bi0tbjhqNmRzNTNsd3drcnFodjI4YS5ub3Qtd2ViLXBsYXRm
b3JtLnRlc3SCMnhuLS1uOGo2ZHM1M2x3d2tycWh2MjhhLnd3dzEubm90LXdlYi1w
bGF0Zm9ybS50ZXN0gjJ4bi0tbjhqNmRzNTNsd3drcnFodjI4YS53d3cyLm5vdC13
ZWItcGxhdGZvcm0udGVzdII2eG4tLWx2ZS02bGFkLnhuLS1uOGo2ZHM1M2x3d2ty
cWh2MjhhLndlYi1wbGF0Zm9ybS50ZXN0gjZ4bi0tbjhqNmRzNTNsd3drcnFodjI4
YS54bi0tbHZlLTZsYWQud2ViLXBsYXRmb3JtLnRlc3SCOnhuLS1uOGo2ZHM1M2x3
d2tycWh2MjhhLnhuLS1sdmUtNmxhZC5ub3Qtd2ViLXBsYXRmb3JtLnRlc3SCOnhu
LS1sdmUtNmxhZC54bi0tbjhqNmRzNTNsd3drcnFodjI4YS5ub3Qtd2ViLXBsYXRm
b3JtLnRlc3SCQXhuLS1uOGo2ZHM1M2x3d2tycWh2MjhhLnhuLS1uOGo2ZHM1M2x3
d2tycWh2MjhhLndlYi1wbGF0Zm9ybS50ZXN0gkV4bi0tbjhqNmRzNTNsd3drcnFo
djI4YS54bi0tbjhqNmRzNTNsd3drcnFodjI4YS5ub3Qtd2ViLXBsYXRmb3JtLnRl
c3QwDQYJKoZIhvcNAQELBQADggEBABWIehkeBqxLNcmNo9M6lK/XLOCMfPaZ+4QT
6t7xVALhfxmXYnHPRzKmeCSNZXuB0scsTORfEYnWtrRA3X2AEIcCDpgrilPsm1/X
Sg/DMH+ZWe2KO+9hpRBQEMWH5vMq9O3vxecsJ6VO93jCekqdtE7tBCI+AU8ZSjrN
B3LIvQheLA0ysxuaVJVV8h70vGJPlh6X08U5OGh6BHIbEE4DkvWYsx+rjou+fknY
klBiansbwCUk4FmB13MSj1JlrF2PQ7XtxTV1wj8AxjT7vPZFERFKCywJvDaum3IS
D78VnVdK8aRcFZMHh9IHezu7iISskhk8b8o3ZVZIIlIgRxc8h2k=
-----END CERTIFICATE-----
