Certificate:
    Data:
        Version: 3 (0x2)
        Serial Number: 444801 (0x6c981)
        Signature Algorithm: sha256WithRSAEncryption
        Issuer: CN=web-platform-tests
        Validity
            Not Before: May 12 02:41:34 2026 GMT
            Not After : May 12 02:41:34 2027 GMT
        Subject: CN=web-platform.test
        Subject Public Key Info:
            Public Key Algorithm: rsaEncryption
                Public-Key: (2048 bit)
                Modulus:
                    00:c9:1c:9d:3d:92:e9:41:c8:dc:9c:7c:6f:53:00:
                    6d:37:9c:03:83:05:8c:de:fb:37:5e:14:4d:14:eb:
                    90:dc:09:8e:85:08:d8:83:38:69:81:e0:de:b8:59:
                    53:17:30:e2:11:47:47:37:3d:04:f8:6a:31:23:dd:
                    86:11:fe:74:9d:db:dd:2b:3b:df:06:4a:15:82:a8:
                    3d:67:38:9a:bc:a1:f3:8e:40:6d:21:a6:e1:79:62:
                    be:49:a0:51:1f:b7:ce:ea:07:9b:a6:90:d3:76:8e:
                    9e:88:89:60:84:fa:e5:78:3e:ab:7b:41:2e:bf:91:
                    38:64:e5:7a:80:f3:0c:64:9b:be:a7:62:7d:8d:2c:
                    67:d4:f2:89:c7:ef:9e:50:38:6b:bf:16:48:53:f2:
                    d6:77:2b:ec:e5:06:74:98:e7:69:74:6d:6e:68:a6:
                    9c:67:1f:45:57:81:76:be:00:da:28:34:bb:19:02:
                    c8:64:d2:86:f6:11:7f:06:dd:85:9c:01:68:bf:03:
                    10:cd:60:c5:81:90:86:a0:2e:8d:70:dd:c4:33:31:
                    9f:b6:bc:22:81:b3:b2:28:b5:f2:3d:88:f9:fc:56:
                    0f:f7:75:2d:b4:a1:f1:1c:d4:cd:21:96:c2:8c:09:
                    a9:3e:7c:64:33:4a:9d:20:d1:6b:a4:28:98:b9:e0:
                    77:ad
                Exponent: 65537 (0x10001)
        X509v3 extensions:
            X509v3 Basic Constraints: 
                CA:FALSE
            X509v3 Subject Key Identifier: 
                9B:67:89:2C:25:23:7C:E8:F3:D4:FA:51:9B:D8:4B:7B:D0:59:DA:31
            X509v3 Authority Key Identifier: 
                07:B5:7A:F9:C6:5A:ED:E8:2E:9E:ED:81:BE:2C:D0:4C:60:6E:67:DF
            X509v3 Key Usage: 
                Digital Signature, Non Repudiation, Key Encipherment
            X509v3 Extended Key Usage: 
                TLS Web Server Authentication
            X509v3 Subject Alternative Name: 
                DNS:web-platform.test, DNS:not-web-platform.test, DNS:www.web-platform.test, DNS:www2.web-platform.test, DNS:www1.web-platform.test, DNS:www.not-web-platform.test, DNS:www.www.web-platform.test, DNS:www2.not-web-platform.test, DNS:www.www1.web-platform.test, DNS:www.www2.web-platform.test, DNS:www2.www.web-platform.test, DNS:www1.www.web-platform.test, DNS:www1.not-web-platform.test, DNS:www2.www2.web-platform.test, DNS:www1.www1.web-platform.test, DNS:www1.www2.web-platform.test, DNS:www2.www1.web-platform.test, DNS:www.www.not-web-platform.test, DNS:www.www1.not-web-platform.test, DNS:www1.www.not-web-platform.test, DNS:www2.www.not-web-platform.test, DNS:xn--lve-6lad.web-platform.test, DNS:www.www2.not-web-platform.test, DNS:www1.www2.not-web-platform.test, DNS:www2.www2.not-web-platform.test, DNS:www2.www1.not-web-platform.test, DNS:www1.www1.not-web-platform.test, DNS:xn--lve-6lad.www.web-platform.test, DNS:www.xn--lve-6lad.web-platform.test, DNS:xn--lve-6lad.not-web-platform.test, DNS:www1.xn--lve-6lad.web-platform.test, DNS:www2.xn--lve-6lad.web-platform.test, DNS:xn--lve-6lad.www1.web-platform.test, DNS:xn--lve-6lad.www2.web-platform.test, DNS:www.xn--lve-6lad.not-web-platform.test, DNS:xn--lve-6lad.www.not-web-platform.test, DNS:xn--lve-6lad.www2.not-web-platform.test, DNS:www2.xn--lve-6lad.not-web-platform.test, DNS:xn--lve-6lad.www1.not-web-platform.test, DNS:www1.xn--lve-6lad.not-web-platform.test, DNS:xn--n8j6ds53lwwkrqhv28a.web-platform.test, DNS:xn--lve-6lad.xn--lve-6lad.web-platform.test, DNS:xn--n8j6ds53lwwkrqhv28a.www.web-platform.test, DNS:www.xn--n8j6ds53lwwkrqhv28a.web-platform.test, DNS:xn--n8j6ds53lwwkrqhv28a.not-web-platform.test, DNS:xn--n8j6ds53lwwkrqhv28a.www1.web-platform.test, DNS:www1.xn--n8j6ds53lwwkrqhv28a.web-platform.test, DNS:www2.xn--n8j6ds53lwwkrqhv28a.web-platform.test, DNS:xn--n8j6ds53lwwkrqhv28a.www2.web-platform.test, DNS:xn--lve-6lad.xn--lve-6lad.not-web-platform.test, DNS:www.xn--n8j6ds53lwwkrqhv28a.not-web-platform.test, DNS:xn--n8j6ds53lwwkrqhv28a.www.not-web-platform.test, DNS:xn--n8j6ds53lwwkrqhv28a.www1.not-web-platform.test, DNS:www2.xn--n8j6ds53lwwkrqhv28a.not-web-platform.test, DNS:www1.xn--n8j6ds53lwwkrqhv28a.not-web-platform.test, DNS:xn--n8j6ds53lwwkrqhv28a.www2.not-web-platform.test, DNS:xn--n8j6ds53lwwkrqhv28a.xn--lve-6lad.web-platform.test, DNS:xn--lve-6lad.xn--n8j6ds53lwwkrqhv28a.web-platform.test, DNS:xn--n8j6ds53lwwkrqhv28a.xn--lve-6lad.not-web-platform.test, DNS:xn--lve-6lad.xn--n8j6ds53lwwkrqhv28a.not-web-platform.test, DNS:xn--n8j6ds53lwwkrqhv28a.xn--n8j6ds53lwwkrqhv28a.web-platform.test, DNS:xn--n8j6ds53lwwkrqhv28a.xn--n8j6ds53lwwkrqhv28a.not-web-platform.test
    Signature Algorithm: sha256WithRSAEncryption
    Signature Value:
        14:0d:63:89:b8:91:c1:e3:03:72:e2:2d:a4:4b:9f:e4:c1:9e:
        16:d6:e8:bf:73:95:78:94:02:31:55:22:ff:c4:06:f0:b1:d6:
        86:51:f0:cf:51:ab:4d:af:24:ce:ac:53:2e:4a:41:69:ae:61:
        bd:59:a6:1a:30:3f:5a:5f:08:36:9b:b5:6a:88:60:2c:5a:b5:
        25:ce:2f:73:fd:81:86:cb:bb:f5:9c:af:6c:41:9a:41:6a:f8:
        b9:fa:d9:58:04:7c:7f:3a:0b:64:e6:d6:83:9f:ff:41:56:75:
        96:5a:9a:d0:9a:1b:03:87:e4:8c:62:78:e0:53:d4:68:49:bc:
        79:b5:a5:d5:a0:5e:b0:72:32:3f:b1:8a:58:72:9d:02:79:28:
        83:99:2a:ff:47:44:59:65:86:23:b9:eb:81:f8:e7:08:a9:c9:
        e2:44:01:f1:2a:82:8c:44:93:d4:9a:d7:8e:20:c3:7c:b9:a1:
        5a:31:63:24:b0:75:5b:56:d2:9a:6b:3e:58:03:2d:07:f2:29:
        9d:62:28:1b:de:e2:4c:65:cf:c9:30:b6:05:42:48:fc:c4:26:
        36:41:67:0c:1e:1f:be:ad:28:a8:57:2e:59:9c:74:2d:53:5b:
        e6:06:b3:3e:53:25:2f:e2:11:f0:1d:0b:b0:fb:01:26:99:11:
        13:ba:d0:b8
-----BEGIN CERTIFICATE-----
MIIMsjCCC5qgAwIBAgIDBsmBMA0GCSqGSIb3DQEBCwUAMB0xGzAZBgNVBAMMEndl
Yi1wbGF0Zm9ybS10ZXN0czAeFw0yNjA1MTIwMjQxMzRaFw0yNzA1MTIwMjQxMzRa
MBwxGjAYBgNVBAMMEXdlYi1wbGF0Zm9ybS50ZXN0MIIBIjANBgkqhkiG9w0BAQEF
AAOCAQ8AMIIBCgKCAQEAyRydPZLpQcjcnHxvUwBtN5wDgwWM3vs3XhRNFOuQ3AmO
hQjYgzhpgeDeuFlTFzDiEUdHNz0E+GoxI92GEf50ndvdKzvfBkoVgqg9ZziavKHz
jkBtIabheWK+SaBRH7fO6gebppDTdo6eiIlghPrleD6re0Euv5E4ZOV6gPMMZJu+
p2J9jSxn1PKJx++eUDhrvxZIU/LWdyvs5QZ0mOdpdG1uaKacZx9FV4F2vgDaKDS7
GQLIZNKG9hF/Bt2FnAFovwMQzWDFgZCGoC6NcN3EMzGftrwigbOyKLXyPYj5/FYP
93UttKHxHNTNIZbCjAmpPnxkM0qdINFrpCiYueB3rQIDAQABo4IJ+jCCCfYwCQYD
VR0TBAIwADAdBgNVHQ4EFgQUm2eJLCUjfOjz1PpRm9hLe9BZ2jEwHwYDVR0jBBgw
FoAUB7V6+cZa7egunu2BvizQTGBuZ98wCwYDVR0PBAQDAgXgMBMGA1UdJQQMMAoG
CCsGAQUFBwMBMIIJhQYDVR0RBIIJfDCCCXiCEXdlYi1wbGF0Zm9ybS50ZXN0ghVu
b3Qtd2ViLXBsYXRmb3JtLnRlc3SCFXd3dy53ZWItcGxhdGZvcm0udGVzdIIWd3d3
Mi53ZWItcGxhdGZvcm0udGVzdIIWd3d3MS53ZWItcGxhdGZvcm0udGVzdIIZd3d3
Lm5vdC13ZWItcGxhdGZvcm0udGVzdIIZd3d3Lnd3dy53ZWItcGxhdGZvcm0udGVz
dIIad3d3Mi5ub3Qtd2ViLXBsYXRmb3JtLnRlc3SCGnd3dy53d3cxLndlYi1wbGF0
Zm9ybS50ZXN0ghp3d3cud3d3Mi53ZWItcGxhdGZvcm0udGVzdIIad3d3Mi53d3cu
d2ViLXBsYXRmb3JtLnRlc3SCGnd3dzEud3d3LndlYi1wbGF0Zm9ybS50ZXN0ghp3
d3cxLm5vdC13ZWItcGxhdGZvcm0udGVzdIIbd3d3Mi53d3cyLndlYi1wbGF0Zm9y
bS50ZXN0ght3d3cxLnd3dzEud2ViLXBsYXRmb3JtLnRlc3SCG3d3dzEud3d3Mi53
ZWItcGxhdGZvcm0udGVzdIIbd3d3Mi53d3cxLndlYi1wbGF0Zm9ybS50ZXN0gh13
d3cud3d3Lm5vdC13ZWItcGxhdGZvcm0udGVzdIIed3d3Lnd3dzEubm90LXdlYi1w
bGF0Zm9ybS50ZXN0gh53d3cxLnd3dy5ub3Qtd2ViLXBsYXRmb3JtLnRlc3SCHnd3
dzIud3d3Lm5vdC13ZWItcGxhdGZvcm0udGVzdIIeeG4tLWx2ZS02bGFkLndlYi1w
bGF0Zm9ybS50ZXN0gh53d3cud3d3Mi5ub3Qtd2ViLXBsYXRmb3JtLnRlc3SCH3d3
dzEud3d3Mi5ub3Qtd2ViLXBsYXRmb3JtLnRlc3SCH3d3dzIud3d3Mi5ub3Qtd2Vi
LXBsYXRmb3JtLnRlc3SCH3d3dzIud3d3MS5ub3Qtd2ViLXBsYXRmb3JtLnRlc3SC
H3d3dzEud3d3MS5ub3Qtd2ViLXBsYXRmb3JtLnRlc3SCInhuLS1sdmUtNmxhZC53
d3cud2ViLXBsYXRmb3JtLnRlc3SCInd3dy54bi0tbHZlLTZsYWQud2ViLXBsYXRm
b3JtLnRlc3SCInhuLS1sdmUtNmxhZC5ub3Qtd2ViLXBsYXRmb3JtLnRlc3SCI3d3
dzEueG4tLWx2ZS02bGFkLndlYi1wbGF0Zm9ybS50ZXN0giN3d3cyLnhuLS1sdmUt
NmxhZC53ZWItcGxhdGZvcm0udGVzdIIjeG4tLWx2ZS02bGFkLnd3dzEud2ViLXBs
YXRmb3JtLnRlc3SCI3huLS1sdmUtNmxhZC53d3cyLndlYi1wbGF0Zm9ybS50ZXN0
giZ3d3cueG4tLWx2ZS02bGFkLm5vdC13ZWItcGxhdGZvcm0udGVzdIImeG4tLWx2
ZS02bGFkLnd3dy5ub3Qtd2ViLXBsYXRmb3JtLnRlc3SCJ3huLS1sdmUtNmxhZC53
d3cyLm5vdC13ZWItcGxhdGZvcm0udGVzdIInd3d3Mi54bi0tbHZlLTZsYWQubm90
LXdlYi1wbGF0Zm9ybS50ZXN0gid4bi0tbHZlLTZsYWQud3d3MS5ub3Qtd2ViLXBs
YXRmb3JtLnRlc3SCJ3d3dzEueG4tLWx2ZS02bGFkLm5vdC13ZWItcGxhdGZvcm0u
dGVzdIIpeG4tLW44ajZkczUzbHd3a3JxaHYyOGEud2ViLXBsYXRmb3JtLnRlc3SC
K3huLS1sdmUtNmxhZC54bi0tbHZlLTZsYWQud2ViLXBsYXRmb3JtLnRlc3SCLXhu
LS1uOGo2ZHM1M2x3d2tycWh2MjhhLnd3dy53ZWItcGxhdGZvcm0udGVzdIItd3d3
LnhuLS1uOGo2ZHM1M2x3d2tycWh2MjhhLndlYi1wbGF0Zm9ybS50ZXN0gi14bi0t
bjhqNmRzNTNsd3drcnFodjI4YS5ub3Qtd2ViLXBsYXRmb3JtLnRlc3SCLnhuLS1u
OGo2ZHM1M2x3d2tycWh2MjhhLnd3dzEud2ViLXBsYXRmb3JtLnRlc3SCLnd3dzEu
eG4tLW44ajZkczUzbHd3a3JxaHYyOGEud2ViLXBsYXRmb3JtLnRlc3SCLnd3dzIu
eG4tLW44ajZkczUzbHd3a3JxaHYyOGEud2ViLXBsYXRmb3JtLnRlc3SCLnhuLS1u
OGo2ZHM1M2x3d2tycWh2MjhhLnd3dzIud2ViLXBsYXRmb3JtLnRlc3SCL3huLS1s
dmUtNmxhZC54bi0tbHZlLTZsYWQubm90LXdlYi1wbGF0Zm9ybS50ZXN0gjF3d3cu
eG4tLW44ajZkczUzbHd3a3JxaHYyOGEubm90LXdlYi1wbGF0Zm9ybS50ZXN0gjF4
bi0tbjhqNmRzNTNsd3drcnFodjI4YS53d3cubm90LXdlYi1wbGF0Zm9ybS50ZXN0
gjJ4bi0tbjhqNmRzNTNsd3drcnFodjI4YS53d3cxLm5vdC13ZWItcGxhdGZvcm0u
dGVzdIIyd3d3Mi54bi0tbjhqNmRzNTNsd3drcnFodjI4YS5ub3Qtd2ViLXBsYXRm
b3JtLnRlc3SCMnd3dzEueG4tLW44ajZkczUzbHd3a3JxaHYyOGEubm90LXdlYi1w
bGF0Zm9ybS50ZXN0gjJ4bi0tbjhqNmRzNTNsd3drcnFodjI4YS53d3cyLm5vdC13
ZWItcGxhdGZvcm0udGVzdII2eG4tLW44ajZkczUzbHd3a3JxaHYyOGEueG4tLWx2
ZS02bGFkLndlYi1wbGF0Zm9ybS50ZXN0gjZ4bi0tbHZlLTZsYWQueG4tLW44ajZk
czUzbHd3a3JxaHYyOGEud2ViLXBsYXRmb3JtLnRlc3SCOnhuLS1uOGo2ZHM1M2x3
d2tycWh2MjhhLnhuLS1sdmUtNmxhZC5ub3Qtd2ViLXBsYXRmb3JtLnRlc3SCOnhu
LS1sdmUtNmxhZC54bi0tbjhqNmRzNTNsd3drcnFodjI4YS5ub3Qtd2ViLXBsYXRm
b3JtLnRlc3SCQXhuLS1uOGo2ZHM1M2x3d2tycWh2MjhhLnhuLS1uOGo2ZHM1M2x3
d2tycWh2MjhhLndlYi1wbGF0Zm9ybS50ZXN0gkV4bi0tbjhqNmRzNTNsd3drcnFo
djI4YS54bi0tbjhqNmRzNTNsd3drcnFodjI4YS5ub3Qtd2ViLXBsYXRmb3JtLnRl
c3QwDQYJKoZIhvcNAQELBQADggEBABQNY4m4kcHjA3LiLaRLn+TBnhbW6L9zlXiU
AjFVIv/EBvCx1oZR8M9Rq02vJM6sUy5KQWmuYb1ZphowP1pfCDabtWqIYCxatSXO
L3P9gYbLu/Wcr2xBmkFq+Ln62VgEfH86C2Tm1oOf/0FWdZZamtCaGwOH5IxieOBT
1GhJvHm1pdWgXrByMj+xilhynQJ5KIOZKv9HRFllhiO564H45wipyeJEAfEqgoxE
k9Sa144gw3y5oVoxYySwdVtW0pprPlgDLQfyKZ1iKBve4kxlz8kwtgVCSPzEJjZB
ZwweH76tKKhXLlmcdC1TW+YGsz5TJS/iEfAdC7D7ASaZERO60Lg=
-----END CERTIFICATE-----
