Certificate:
    Data:
        Version: 3 (0x2)
        Serial Number: 114201 (0x1be19)
        Signature Algorithm: sha256WithRSAEncryption
        Issuer: CN=web-platform-tests
        Validity
            Not Before: Sep 12 01:03:10 2024 GMT
            Not After : Sep 12 01:03:10 2025 GMT
        Subject: CN=web-platform.test
        Subject Public Key Info:
            Public Key Algorithm: rsaEncryption
                RSA Public-Key: (2048 bit)
                Modulus:
                    00:ce:a2:f7:62:3b:75:0f:c4:81:f4:b3:f3:c1:db:
                    1d:cc:04:b2:5a:83:ee:d7:aa:37:df:c6:b1:81:e4:
                    03:86:06:84:4d:fb:09:67:11:d5:02:2b:bf:42:74:
                    54:7e:3b:87:b7:d0:0a:c2:24:dc:e6:70:e0:e3:ad:
                    36:88:0b:1e:89:a4:bf:68:a8:49:bc:57:14:7b:48:
                    bc:10:47:a8:7f:d6:63:78:ac:ae:0a:9e:a1:d5:c7:
                    18:94:74:36:88:37:39:0d:cc:a0:75:7c:e4:81:87:
                    e1:5c:f4:5b:29:21:cf:b5:05:b0:21:65:89:a8:01:
                    72:7f:c3:37:ef:09:31:de:10:4f:9f:a6:84:3c:35:
                    be:d4:77:20:4d:26:0b:1b:f6:ed:5f:f2:16:a1:02:
                    20:6b:17:2d:62:1d:c1:b8:a7:5d:18:9d:42:55:39:
                    f7:08:7a:25:56:3e:35:f7:10:78:1b:be:05:1d:32:
                    ec:8c:5b:9e:f2:f3:76:47:e8:f4:3e:80:b6:00:03:
                    c0:eb:c1:3e:1e:b4:eb:55:e9:80:d1:f9:bf:41:b2:
                    ae:a3:58:23:c5:76:67:12:20:63:d3:4c:3f:08:bc:
                    07:a9:32:c8:2d:d9:77:f1:f0:d5:20:77:82:1a:b6:
                    98:cf:66:67:94:f4:7e:79:5b:19:ac:23:4f:7b:2c:
                    cc:2d
                Exponent: 65537 (0x10001)
        X509v3 extensions:
            X509v3 Basic Constraints: 
                CA:FALSE
            X509v3 Subject Key Identifier: 
                43:82:25:04:5A:01:43:01:03:CE:51:1D:0C:4F:F6:48:3A:91:55:1A
            X509v3 Authority Key Identifier: 
                keyid:FE:64:41:FD:EB:25:D2:54:6A:A6:E1:36:F6:12:2A:56:F9:82:F6:B5

            X509v3 Key Usage: 
                Digital Signature, Non Repudiation, Key Encipherment
            X509v3 Extended Key Usage: 
                TLS Web Server Authentication
            X509v3 Subject Alternative Name: 
                DNS:web-platform.test, DNS:not-web-platform.test, DNS:www.web-platform.test, DNS:www2.web-platform.test, DNS:www1.web-platform.test, DNS:www.www.web-platform.test, DNS:www.not-web-platform.test, DNS:www.www1.web-platform.test, DNS:www2.www.web-platform.test, DNS:www1.not-web-platform.test, DNS:www1.www.web-platform.test, DNS:www2.not-web-platform.test, DNS:www.www2.web-platform.test, DNS:www1.www2.web-platform.test, DNS:www2.www1.web-platform.test, DNS:www2.www2.web-platform.test, DNS:www1.www1.web-platform.test, DNS:www.www.not-web-platform.test, DNS:www.www1.not-web-platform.test, DNS:www.www2.not-web-platform.test, DNS:xn--lve-6lad.web-platform.test, DNS:www2.www.not-web-platform.test, DNS:www1.www.not-web-platform.test, DNS:www2.www2.not-web-platform.test, DNS:www1.www2.not-web-platform.test, DNS:www1.www1.not-web-platform.test, DNS:www2.www1.not-web-platform.test, DNS:xn--lve-6lad.not-web-platform.test, DNS:www.xn--lve-6lad.web-platform.test, DNS:xn--lve-6lad.www.web-platform.test, DNS:www1.xn--lve-6lad.web-platform.test, DNS:www2.xn--lve-6lad.web-platform.test, DNS:xn--lve-6lad.www1.web-platform.test, DNS:xn--lve-6lad.www2.web-platform.test, DNS:www.xn--lve-6lad.not-web-platform.test, DNS:xn--lve-6lad.www.not-web-platform.test, DNS:www2.xn--lve-6lad.not-web-platform.test, DNS:xn--lve-6lad.www1.not-web-platform.test, DNS:www1.xn--lve-6lad.not-web-platform.test, DNS:xn--lve-6lad.www2.not-web-platform.test, DNS:xn--n8j6ds53lwwkrqhv28a.web-platform.test, DNS:xn--lve-6lad.xn--lve-6lad.web-platform.test, DNS:www.xn--n8j6ds53lwwkrqhv28a.web-platform.test, DNS:xn--n8j6ds53lwwkrqhv28a.www.web-platform.test, DNS:xn--n8j6ds53lwwkrqhv28a.not-web-platform.test, DNS:xn--n8j6ds53lwwkrqhv28a.www2.web-platform.test, DNS:xn--n8j6ds53lwwkrqhv28a.www1.web-platform.test, DNS:www1.xn--n8j6ds53lwwkrqhv28a.web-platform.test, DNS:www2.xn--n8j6ds53lwwkrqhv28a.web-platform.test, DNS:xn--lve-6lad.xn--lve-6lad.not-web-platform.test, DNS:xn--n8j6ds53lwwkrqhv28a.www.not-web-platform.test, DNS:www.xn--n8j6ds53lwwkrqhv28a.not-web-platform.test, DNS:xn--n8j6ds53lwwkrqhv28a.www1.not-web-platform.test, DNS:xn--n8j6ds53lwwkrqhv28a.www2.not-web-platform.test, DNS:www1.xn--n8j6ds53lwwkrqhv28a.not-web-platform.test, DNS:www2.xn--n8j6ds53lwwkrqhv28a.not-web-platform.test, DNS:xn--lve-6lad.xn--n8j6ds53lwwkrqhv28a.web-platform.test, DNS:xn--n8j6ds53lwwkrqhv28a.xn--lve-6lad.web-platform.test, DNS:xn--lve-6lad.xn--n8j6ds53lwwkrqhv28a.not-web-platform.test, DNS:xn--n8j6ds53lwwkrqhv28a.xn--lve-6lad.not-web-platform.test, DNS:xn--n8j6ds53lwwkrqhv28a.xn--n8j6ds53lwwkrqhv28a.web-platform.test, DNS:xn--n8j6ds53lwwkrqhv28a.xn--n8j6ds53lwwkrqhv28a.not-web-platform.test
    Signature Algorithm: sha256WithRSAEncryption
         84:56:ff:85:c0:76:43:19:5a:7c:3d:e7:bf:19:f3:32:2d:18:
         1b:fd:4c:2d:ff:be:73:d7:b0:ae:d9:1f:c4:a6:ae:c3:73:38:
         e7:ae:17:3a:e9:5e:d0:4a:f0:9b:d1:ca:6f:d9:8b:83:91:9e:
         17:00:42:f2:52:8e:58:04:dd:49:71:c1:ed:d2:e9:98:c8:dc:
         67:92:bb:60:15:df:37:5b:24:ef:ea:20:05:4d:fe:00:88:c3:
         d7:6c:d3:95:6e:28:c6:7e:dd:f4:fe:dd:bc:06:36:b2:b2:59:
         2b:62:e1:a3:b8:4e:fc:4d:a9:e7:a7:38:c6:ec:d8:72:17:57:
         c5:f0:b8:c4:f0:e8:87:5e:67:e5:0f:43:a9:cb:1c:7a:f1:d6:
         30:89:11:3f:ca:90:4a:3c:81:15:90:13:47:32:68:68:75:27:
         7f:39:e4:cb:d6:c3:5f:c1:a1:90:ff:9e:4c:6d:6a:e2:44:2e:
         09:d8:85:44:69:f8:55:ab:84:98:83:c6:e7:ed:e0:45:5d:f1:
         39:4a:d1:92:c8:56:5d:9d:42:9d:b6:02:78:d9:48:a9:7e:ad:
         45:37:bd:73:e6:ad:fa:c8:15:b3:90:bd:17:ec:9b:ae:63:e9:
         98:8a:36:da:99:7a:77:0c:8c:a9:98:70:af:97:69:e5:90:c1:
         4d:99:b2:a5
-----BEGIN CERTIFICATE-----
MIIMsjCCC5qgAwIBAgIDAb4ZMA0GCSqGSIb3DQEBCwUAMB0xGzAZBgNVBAMMEndl
Yi1wbGF0Zm9ybS10ZXN0czAeFw0yNDA5MTIwMTAzMTBaFw0yNTA5MTIwMTAzMTBa
MBwxGjAYBgNVBAMMEXdlYi1wbGF0Zm9ybS50ZXN0MIIBIjANBgkqhkiG9w0BAQEF
AAOCAQ8AMIIBCgKCAQEAzqL3Yjt1D8SB9LPzwdsdzASyWoPu16o338axgeQDhgaE
TfsJZxHVAiu/QnRUfjuHt9AKwiTc5nDg4602iAseiaS/aKhJvFcUe0i8EEeof9Zj
eKyuCp6h1ccYlHQ2iDc5DcygdXzkgYfhXPRbKSHPtQWwIWWJqAFyf8M37wkx3hBP
n6aEPDW+1HcgTSYLG/btX/IWoQIgaxctYh3BuKddGJ1CVTn3CHolVj419xB4G74F
HTLsjFue8vN2R+j0PoC2AAPA68E+HrTrVemA0fm/QbKuo1gjxXZnEiBj00w/CLwH
qTLILdl38fDVIHeCGraYz2ZnlPR+eVsZrCNPeyzMLQIDAQABo4IJ+jCCCfYwCQYD
VR0TBAIwADAdBgNVHQ4EFgQUQ4IlBFoBQwEDzlEdDE/2SDqRVRowHwYDVR0jBBgw
FoAU/mRB/esl0lRqpuE29hIqVvmC9rUwCwYDVR0PBAQDAgXgMBMGA1UdJQQMMAoG
CCsGAQUFBwMBMIIJhQYDVR0RBIIJfDCCCXiCEXdlYi1wbGF0Zm9ybS50ZXN0ghVu
b3Qtd2ViLXBsYXRmb3JtLnRlc3SCFXd3dy53ZWItcGxhdGZvcm0udGVzdIIWd3d3
Mi53ZWItcGxhdGZvcm0udGVzdIIWd3d3MS53ZWItcGxhdGZvcm0udGVzdIIZd3d3
Lnd3dy53ZWItcGxhdGZvcm0udGVzdIIZd3d3Lm5vdC13ZWItcGxhdGZvcm0udGVz
dIIad3d3Lnd3dzEud2ViLXBsYXRmb3JtLnRlc3SCGnd3dzIud3d3LndlYi1wbGF0
Zm9ybS50ZXN0ghp3d3cxLm5vdC13ZWItcGxhdGZvcm0udGVzdIIad3d3MS53d3cu
d2ViLXBsYXRmb3JtLnRlc3SCGnd3dzIubm90LXdlYi1wbGF0Zm9ybS50ZXN0ghp3
d3cud3d3Mi53ZWItcGxhdGZvcm0udGVzdIIbd3d3MS53d3cyLndlYi1wbGF0Zm9y
bS50ZXN0ght3d3cyLnd3dzEud2ViLXBsYXRmb3JtLnRlc3SCG3d3dzIud3d3Mi53
ZWItcGxhdGZvcm0udGVzdIIbd3d3MS53d3cxLndlYi1wbGF0Zm9ybS50ZXN0gh13
d3cud3d3Lm5vdC13ZWItcGxhdGZvcm0udGVzdIIed3d3Lnd3dzEubm90LXdlYi1w
bGF0Zm9ybS50ZXN0gh53d3cud3d3Mi5ub3Qtd2ViLXBsYXRmb3JtLnRlc3SCHnhu
LS1sdmUtNmxhZC53ZWItcGxhdGZvcm0udGVzdIIed3d3Mi53d3cubm90LXdlYi1w
bGF0Zm9ybS50ZXN0gh53d3cxLnd3dy5ub3Qtd2ViLXBsYXRmb3JtLnRlc3SCH3d3
dzIud3d3Mi5ub3Qtd2ViLXBsYXRmb3JtLnRlc3SCH3d3dzEud3d3Mi5ub3Qtd2Vi
LXBsYXRmb3JtLnRlc3SCH3d3dzEud3d3MS5ub3Qtd2ViLXBsYXRmb3JtLnRlc3SC
H3d3dzIud3d3MS5ub3Qtd2ViLXBsYXRmb3JtLnRlc3SCInhuLS1sdmUtNmxhZC5u
b3Qtd2ViLXBsYXRmb3JtLnRlc3SCInd3dy54bi0tbHZlLTZsYWQud2ViLXBsYXRm
b3JtLnRlc3SCInhuLS1sdmUtNmxhZC53d3cud2ViLXBsYXRmb3JtLnRlc3SCI3d3
dzEueG4tLWx2ZS02bGFkLndlYi1wbGF0Zm9ybS50ZXN0giN3d3cyLnhuLS1sdmUt
NmxhZC53ZWItcGxhdGZvcm0udGVzdIIjeG4tLWx2ZS02bGFkLnd3dzEud2ViLXBs
YXRmb3JtLnRlc3SCI3huLS1sdmUtNmxhZC53d3cyLndlYi1wbGF0Zm9ybS50ZXN0
giZ3d3cueG4tLWx2ZS02bGFkLm5vdC13ZWItcGxhdGZvcm0udGVzdIImeG4tLWx2
ZS02bGFkLnd3dy5ub3Qtd2ViLXBsYXRmb3JtLnRlc3SCJ3d3dzIueG4tLWx2ZS02
bGFkLm5vdC13ZWItcGxhdGZvcm0udGVzdIIneG4tLWx2ZS02bGFkLnd3dzEubm90
LXdlYi1wbGF0Zm9ybS50ZXN0gid3d3cxLnhuLS1sdmUtNmxhZC5ub3Qtd2ViLXBs
YXRmb3JtLnRlc3SCJ3huLS1sdmUtNmxhZC53d3cyLm5vdC13ZWItcGxhdGZvcm0u
dGVzdIIpeG4tLW44ajZkczUzbHd3a3JxaHYyOGEud2ViLXBsYXRmb3JtLnRlc3SC
K3huLS1sdmUtNmxhZC54bi0tbHZlLTZsYWQud2ViLXBsYXRmb3JtLnRlc3SCLXd3
dy54bi0tbjhqNmRzNTNsd3drcnFodjI4YS53ZWItcGxhdGZvcm0udGVzdIIteG4t
LW44ajZkczUzbHd3a3JxaHYyOGEud3d3LndlYi1wbGF0Zm9ybS50ZXN0gi14bi0t
bjhqNmRzNTNsd3drcnFodjI4YS5ub3Qtd2ViLXBsYXRmb3JtLnRlc3SCLnhuLS1u
OGo2ZHM1M2x3d2tycWh2MjhhLnd3dzIud2ViLXBsYXRmb3JtLnRlc3SCLnhuLS1u
OGo2ZHM1M2x3d2tycWh2MjhhLnd3dzEud2ViLXBsYXRmb3JtLnRlc3SCLnd3dzEu
eG4tLW44ajZkczUzbHd3a3JxaHYyOGEud2ViLXBsYXRmb3JtLnRlc3SCLnd3dzIu
eG4tLW44ajZkczUzbHd3a3JxaHYyOGEud2ViLXBsYXRmb3JtLnRlc3SCL3huLS1s
dmUtNmxhZC54bi0tbHZlLTZsYWQubm90LXdlYi1wbGF0Zm9ybS50ZXN0gjF4bi0t
bjhqNmRzNTNsd3drcnFodjI4YS53d3cubm90LXdlYi1wbGF0Zm9ybS50ZXN0gjF3
d3cueG4tLW44ajZkczUzbHd3a3JxaHYyOGEubm90LXdlYi1wbGF0Zm9ybS50ZXN0
gjJ4bi0tbjhqNmRzNTNsd3drcnFodjI4YS53d3cxLm5vdC13ZWItcGxhdGZvcm0u
dGVzdIIyeG4tLW44ajZkczUzbHd3a3JxaHYyOGEud3d3Mi5ub3Qtd2ViLXBsYXRm
b3JtLnRlc3SCMnd3dzEueG4tLW44ajZkczUzbHd3a3JxaHYyOGEubm90LXdlYi1w
bGF0Zm9ybS50ZXN0gjJ3d3cyLnhuLS1uOGo2ZHM1M2x3d2tycWh2MjhhLm5vdC13
ZWItcGxhdGZvcm0udGVzdII2eG4tLWx2ZS02bGFkLnhuLS1uOGo2ZHM1M2x3d2ty
cWh2MjhhLndlYi1wbGF0Zm9ybS50ZXN0gjZ4bi0tbjhqNmRzNTNsd3drcnFodjI4
YS54bi0tbHZlLTZsYWQud2ViLXBsYXRmb3JtLnRlc3SCOnhuLS1sdmUtNmxhZC54
bi0tbjhqNmRzNTNsd3drcnFodjI4YS5ub3Qtd2ViLXBsYXRmb3JtLnRlc3SCOnhu
LS1uOGo2ZHM1M2x3d2tycWh2MjhhLnhuLS1sdmUtNmxhZC5ub3Qtd2ViLXBsYXRm
b3JtLnRlc3SCQXhuLS1uOGo2ZHM1M2x3d2tycWh2MjhhLnhuLS1uOGo2ZHM1M2x3
d2tycWh2MjhhLndlYi1wbGF0Zm9ybS50ZXN0gkV4bi0tbjhqNmRzNTNsd3drcnFo
djI4YS54bi0tbjhqNmRzNTNsd3drcnFodjI4YS5ub3Qtd2ViLXBsYXRmb3JtLnRl
c3QwDQYJKoZIhvcNAQELBQADggEBAIRW/4XAdkMZWnw9578Z8zItGBv9TC3/vnPX
sK7ZH8SmrsNzOOeuFzrpXtBK8JvRym/Zi4ORnhcAQvJSjlgE3Ulxwe3S6ZjI3GeS
u2AV3zdbJO/qIAVN/gCIw9ds05VuKMZ+3fT+3bwGNrKyWSti4aO4TvxNqeenOMbs
2HIXV8XwuMTw6IdeZ+UPQ6nLHHrx1jCJET/KkEo8gRWQE0cyaGh1J3855MvWw1/B
oZD/nkxtauJELgnYhURp+FWrhJiDxuft4EVd8TlK0ZLIVl2dQp22AnjZSKl+rUU3
vXPmrfrIFbOQvRfsm65j6ZiKNtqZencMjKmYcK+XaeWQwU2ZsqU=
-----END CERTIFICATE-----
