Certificate:
    Data:
        Version: 3 (0x2)
        Serial Number: 376751 (0x5bfaf)
        Signature Algorithm: sha256WithRSAEncryption
        Issuer: CN=web-platform-tests
        Validity
            Not Before: Apr 12 02:12:39 2026 GMT
            Not After : Apr 12 02:12:39 2027 GMT
        Subject: CN=web-platform.test
        Subject Public Key Info:
            Public Key Algorithm: rsaEncryption
                Public-Key: (2048 bit)
                Modulus:
                    00:b3:fe:8f:e4:a3:75:59:63:f5:33:7a:2d:2e:04:
                    67:eb:f5:8e:b3:9d:50:d1:57:ca:38:cd:9f:f7:28:
                    70:4f:01:b0:fb:97:d1:ca:86:9a:ca:57:26:8f:bd:
                    a3:72:a1:cb:75:77:e7:3b:ed:36:1c:fa:70:6b:d9:
                    6d:54:31:b5:e5:5c:8d:84:f8:0c:a1:97:80:76:4d:
                    98:04:b3:66:d6:0f:93:94:33:08:bd:b5:00:aa:f1:
                    d3:c6:31:78:0a:92:3b:70:d1:2d:1e:c9:8c:e1:dd:
                    b4:af:a6:44:6e:ca:d5:48:b6:fe:d6:7d:39:a0:de:
                    ea:98:7e:42:b9:ff:08:de:4e:4f:76:14:0f:a0:44:
                    f7:dd:44:dd:ea:e0:b2:71:f5:87:e9:9e:42:d5:cc:
                    93:f0:3f:28:ac:b7:24:75:3f:45:78:4f:5d:49:b8:
                    bb:5b:83:d7:e8:59:b4:ad:e6:c9:b9:d5:38:ba:34:
                    01:55:e2:0c:44:c9:86:1f:ab:fd:0d:f6:fa:81:ac:
                    ae:2f:0b:3b:8a:66:72:39:5b:a1:34:07:f3:2d:64:
                    7a:ff:9b:7f:ff:52:93:c5:04:64:b9:55:be:03:fa:
                    37:3b:60:c3:ea:be:bd:89:21:77:8f:31:98:99:e6:
                    eb:70:34:73:c8:90:0c:6a:17:05:23:08:0b:ad:90:
                    d6:4b
                Exponent: 65537 (0x10001)
        X509v3 extensions:
            X509v3 Basic Constraints: 
                CA:FALSE
            X509v3 Subject Key Identifier: 
                C3:EC:FE:A6:9C:90:05:BF:8C:35:BD:15:C9:BB:9B:80:E8:FD:97:CB
            X509v3 Authority Key Identifier: 
                4D:55:3E:AC:26:A8:F6:74:38:5B:A1:FC:08:D7:28:8E:3F:8D:80:2B
            X509v3 Key Usage: 
                Digital Signature, Non Repudiation, Key Encipherment
            X509v3 Extended Key Usage: 
                TLS Web Server Authentication
            X509v3 Subject Alternative Name: 
                DNS:web-platform.test, DNS:www.web-platform.test, DNS:not-web-platform.test, DNS:www1.web-platform.test, DNS:www2.web-platform.test, DNS:www.not-web-platform.test, DNS:www.www.web-platform.test, DNS:www1.not-web-platform.test, DNS:www.www1.web-platform.test, DNS:www1.www.web-platform.test, DNS:www2.www.web-platform.test, DNS:www.www2.web-platform.test, DNS:www2.not-web-platform.test, DNS:www1.www1.web-platform.test, DNS:www2.www2.web-platform.test, DNS:www2.www1.web-platform.test, DNS:www1.www2.web-platform.test, DNS:www.www.not-web-platform.test, DNS:www.www2.not-web-platform.test, DNS:xn--lve-6lad.web-platform.test, DNS:www1.www.not-web-platform.test, DNS:www2.www.not-web-platform.test, DNS:www.www1.not-web-platform.test, DNS:www1.www2.not-web-platform.test, DNS:www2.www2.not-web-platform.test, DNS:www2.www1.not-web-platform.test, DNS:www1.www1.not-web-platform.test, DNS:xn--lve-6lad.not-web-platform.test, DNS:www.xn--lve-6lad.web-platform.test, DNS:xn--lve-6lad.www.web-platform.test, DNS:www2.xn--lve-6lad.web-platform.test, DNS:www1.xn--lve-6lad.web-platform.test, DNS:xn--lve-6lad.www2.web-platform.test, DNS:xn--lve-6lad.www1.web-platform.test, DNS:www.xn--lve-6lad.not-web-platform.test, DNS:xn--lve-6lad.www.not-web-platform.test, DNS:www1.xn--lve-6lad.not-web-platform.test, DNS:www2.xn--lve-6lad.not-web-platform.test, DNS:xn--lve-6lad.www1.not-web-platform.test, DNS:xn--lve-6lad.www2.not-web-platform.test, DNS:xn--n8j6ds53lwwkrqhv28a.web-platform.test, DNS:xn--lve-6lad.xn--lve-6lad.web-platform.test, DNS:xn--n8j6ds53lwwkrqhv28a.www.web-platform.test, DNS:xn--n8j6ds53lwwkrqhv28a.not-web-platform.test, DNS:www.xn--n8j6ds53lwwkrqhv28a.web-platform.test, DNS:www2.xn--n8j6ds53lwwkrqhv28a.web-platform.test, DNS:www1.xn--n8j6ds53lwwkrqhv28a.web-platform.test, DNS:xn--n8j6ds53lwwkrqhv28a.www2.web-platform.test, DNS:xn--n8j6ds53lwwkrqhv28a.www1.web-platform.test, DNS:xn--lve-6lad.xn--lve-6lad.not-web-platform.test, DNS:xn--n8j6ds53lwwkrqhv28a.www.not-web-platform.test, DNS:www.xn--n8j6ds53lwwkrqhv28a.not-web-platform.test, DNS:xn--n8j6ds53lwwkrqhv28a.www1.not-web-platform.test, DNS:www1.xn--n8j6ds53lwwkrqhv28a.not-web-platform.test, DNS:www2.xn--n8j6ds53lwwkrqhv28a.not-web-platform.test, DNS:xn--n8j6ds53lwwkrqhv28a.www2.not-web-platform.test, DNS:xn--n8j6ds53lwwkrqhv28a.xn--lve-6lad.web-platform.test, DNS:xn--lve-6lad.xn--n8j6ds53lwwkrqhv28a.web-platform.test, DNS:xn--n8j6ds53lwwkrqhv28a.xn--lve-6lad.not-web-platform.test, DNS:xn--lve-6lad.xn--n8j6ds53lwwkrqhv28a.not-web-platform.test, DNS:xn--n8j6ds53lwwkrqhv28a.xn--n8j6ds53lwwkrqhv28a.web-platform.test, DNS:xn--n8j6ds53lwwkrqhv28a.xn--n8j6ds53lwwkrqhv28a.not-web-platform.test
    Signature Algorithm: sha256WithRSAEncryption
    Signature Value:
        40:2b:a8:65:e2:53:d6:ea:e8:35:00:80:12:e0:9d:0f:78:af:
        bf:08:b1:e4:e2:2c:2d:2f:ae:02:4e:b6:d2:46:f0:53:cc:2d:
        d3:49:c5:11:d8:a7:3f:0b:46:6f:e5:bb:2a:a0:63:71:32:db:
        75:f5:24:05:2a:ad:60:e3:5d:55:fc:26:cf:46:ab:97:51:68:
        d6:2d:a7:8d:33:3c:13:f6:dc:4d:6e:f4:48:c4:a3:fe:48:87:
        47:be:1f:00:70:37:13:58:43:c8:70:81:c9:fc:55:e3:9e:0d:
        8c:8a:49:ec:35:57:2a:c8:49:e3:8a:ad:10:97:bb:a0:48:d2:
        e3:55:b9:91:16:61:86:ad:88:1d:92:62:5b:59:27:ae:bd:5f:
        f4:32:da:a2:94:d9:bb:dd:ae:23:80:6d:54:91:8b:ff:8f:06:
        a0:2f:60:bd:2f:28:e3:78:56:1a:cb:3c:63:91:4b:68:fa:a1:
        b9:7f:fa:38:bf:33:c1:d7:c3:94:37:8e:1c:e8:89:a5:24:35:
        15:48:7d:0f:19:b7:aa:78:6f:c8:1a:7b:05:a0:7e:d9:a1:13:
        d2:f4:97:83:b5:ff:70:a0:e5:66:1a:cf:b9:49:50:17:ea:a6:
        1a:88:d4:55:96:d9:ad:a0:c8:2d:70:c9:2e:c2:ff:01:66:01:
        31:25:5c:20
-----BEGIN CERTIFICATE-----
MIIMsjCCC5qgAwIBAgIDBb+vMA0GCSqGSIb3DQEBCwUAMB0xGzAZBgNVBAMMEndl
Yi1wbGF0Zm9ybS10ZXN0czAeFw0yNjA0MTIwMjEyMzlaFw0yNzA0MTIwMjEyMzla
MBwxGjAYBgNVBAMMEXdlYi1wbGF0Zm9ybS50ZXN0MIIBIjANBgkqhkiG9w0BAQEF
AAOCAQ8AMIIBCgKCAQEAs/6P5KN1WWP1M3otLgRn6/WOs51Q0VfKOM2f9yhwTwGw
+5fRyoaaylcmj72jcqHLdXfnO+02HPpwa9ltVDG15VyNhPgMoZeAdk2YBLNm1g+T
lDMIvbUAqvHTxjF4CpI7cNEtHsmM4d20r6ZEbsrVSLb+1n05oN7qmH5Cuf8I3k5P
dhQPoET33UTd6uCycfWH6Z5C1cyT8D8orLckdT9FeE9dSbi7W4PX6Fm0rebJudU4
ujQBVeIMRMmGH6v9Dfb6gayuLws7imZyOVuhNAfzLWR6/5t//1KTxQRkuVW+A/o3
O2DD6r69iSF3jzGYmebrcDRzyJAMahcFIwgLrZDWSwIDAQABo4IJ+jCCCfYwCQYD
VR0TBAIwADAdBgNVHQ4EFgQUw+z+ppyQBb+MNb0VybubgOj9l8swHwYDVR0jBBgw
FoAUTVU+rCao9nQ4W6H8CNcojj+NgCswCwYDVR0PBAQDAgXgMBMGA1UdJQQMMAoG
CCsGAQUFBwMBMIIJhQYDVR0RBIIJfDCCCXiCEXdlYi1wbGF0Zm9ybS50ZXN0ghV3
d3cud2ViLXBsYXRmb3JtLnRlc3SCFW5vdC13ZWItcGxhdGZvcm0udGVzdIIWd3d3
MS53ZWItcGxhdGZvcm0udGVzdIIWd3d3Mi53ZWItcGxhdGZvcm0udGVzdIIZd3d3
Lm5vdC13ZWItcGxhdGZvcm0udGVzdIIZd3d3Lnd3dy53ZWItcGxhdGZvcm0udGVz
dIIad3d3MS5ub3Qtd2ViLXBsYXRmb3JtLnRlc3SCGnd3dy53d3cxLndlYi1wbGF0
Zm9ybS50ZXN0ghp3d3cxLnd3dy53ZWItcGxhdGZvcm0udGVzdIIad3d3Mi53d3cu
d2ViLXBsYXRmb3JtLnRlc3SCGnd3dy53d3cyLndlYi1wbGF0Zm9ybS50ZXN0ghp3
d3cyLm5vdC13ZWItcGxhdGZvcm0udGVzdIIbd3d3MS53d3cxLndlYi1wbGF0Zm9y
bS50ZXN0ght3d3cyLnd3dzIud2ViLXBsYXRmb3JtLnRlc3SCG3d3dzIud3d3MS53
ZWItcGxhdGZvcm0udGVzdIIbd3d3MS53d3cyLndlYi1wbGF0Zm9ybS50ZXN0gh13
d3cud3d3Lm5vdC13ZWItcGxhdGZvcm0udGVzdIIed3d3Lnd3dzIubm90LXdlYi1w
bGF0Zm9ybS50ZXN0gh54bi0tbHZlLTZsYWQud2ViLXBsYXRmb3JtLnRlc3SCHnd3
dzEud3d3Lm5vdC13ZWItcGxhdGZvcm0udGVzdIIed3d3Mi53d3cubm90LXdlYi1w
bGF0Zm9ybS50ZXN0gh53d3cud3d3MS5ub3Qtd2ViLXBsYXRmb3JtLnRlc3SCH3d3
dzEud3d3Mi5ub3Qtd2ViLXBsYXRmb3JtLnRlc3SCH3d3dzIud3d3Mi5ub3Qtd2Vi
LXBsYXRmb3JtLnRlc3SCH3d3dzIud3d3MS5ub3Qtd2ViLXBsYXRmb3JtLnRlc3SC
H3d3dzEud3d3MS5ub3Qtd2ViLXBsYXRmb3JtLnRlc3SCInhuLS1sdmUtNmxhZC5u
b3Qtd2ViLXBsYXRmb3JtLnRlc3SCInd3dy54bi0tbHZlLTZsYWQud2ViLXBsYXRm
b3JtLnRlc3SCInhuLS1sdmUtNmxhZC53d3cud2ViLXBsYXRmb3JtLnRlc3SCI3d3
dzIueG4tLWx2ZS02bGFkLndlYi1wbGF0Zm9ybS50ZXN0giN3d3cxLnhuLS1sdmUt
NmxhZC53ZWItcGxhdGZvcm0udGVzdIIjeG4tLWx2ZS02bGFkLnd3dzIud2ViLXBs
YXRmb3JtLnRlc3SCI3huLS1sdmUtNmxhZC53d3cxLndlYi1wbGF0Zm9ybS50ZXN0
giZ3d3cueG4tLWx2ZS02bGFkLm5vdC13ZWItcGxhdGZvcm0udGVzdIImeG4tLWx2
ZS02bGFkLnd3dy5ub3Qtd2ViLXBsYXRmb3JtLnRlc3SCJ3d3dzEueG4tLWx2ZS02
bGFkLm5vdC13ZWItcGxhdGZvcm0udGVzdIInd3d3Mi54bi0tbHZlLTZsYWQubm90
LXdlYi1wbGF0Zm9ybS50ZXN0gid4bi0tbHZlLTZsYWQud3d3MS5ub3Qtd2ViLXBs
YXRmb3JtLnRlc3SCJ3huLS1sdmUtNmxhZC53d3cyLm5vdC13ZWItcGxhdGZvcm0u
dGVzdIIpeG4tLW44ajZkczUzbHd3a3JxaHYyOGEud2ViLXBsYXRmb3JtLnRlc3SC
K3huLS1sdmUtNmxhZC54bi0tbHZlLTZsYWQud2ViLXBsYXRmb3JtLnRlc3SCLXhu
LS1uOGo2ZHM1M2x3d2tycWh2MjhhLnd3dy53ZWItcGxhdGZvcm0udGVzdIIteG4t
LW44ajZkczUzbHd3a3JxaHYyOGEubm90LXdlYi1wbGF0Zm9ybS50ZXN0gi13d3cu
eG4tLW44ajZkczUzbHd3a3JxaHYyOGEud2ViLXBsYXRmb3JtLnRlc3SCLnd3dzIu
eG4tLW44ajZkczUzbHd3a3JxaHYyOGEud2ViLXBsYXRmb3JtLnRlc3SCLnd3dzEu
eG4tLW44ajZkczUzbHd3a3JxaHYyOGEud2ViLXBsYXRmb3JtLnRlc3SCLnhuLS1u
OGo2ZHM1M2x3d2tycWh2MjhhLnd3dzIud2ViLXBsYXRmb3JtLnRlc3SCLnhuLS1u
OGo2ZHM1M2x3d2tycWh2MjhhLnd3dzEud2ViLXBsYXRmb3JtLnRlc3SCL3huLS1s
dmUtNmxhZC54bi0tbHZlLTZsYWQubm90LXdlYi1wbGF0Zm9ybS50ZXN0gjF4bi0t
bjhqNmRzNTNsd3drcnFodjI4YS53d3cubm90LXdlYi1wbGF0Zm9ybS50ZXN0gjF3
d3cueG4tLW44ajZkczUzbHd3a3JxaHYyOGEubm90LXdlYi1wbGF0Zm9ybS50ZXN0
gjJ4bi0tbjhqNmRzNTNsd3drcnFodjI4YS53d3cxLm5vdC13ZWItcGxhdGZvcm0u
dGVzdIIyd3d3MS54bi0tbjhqNmRzNTNsd3drcnFodjI4YS5ub3Qtd2ViLXBsYXRm
b3JtLnRlc3SCMnd3dzIueG4tLW44ajZkczUzbHd3a3JxaHYyOGEubm90LXdlYi1w
bGF0Zm9ybS50ZXN0gjJ4bi0tbjhqNmRzNTNsd3drcnFodjI4YS53d3cyLm5vdC13
ZWItcGxhdGZvcm0udGVzdII2eG4tLW44ajZkczUzbHd3a3JxaHYyOGEueG4tLWx2
ZS02bGFkLndlYi1wbGF0Zm9ybS50ZXN0gjZ4bi0tbHZlLTZsYWQueG4tLW44ajZk
czUzbHd3a3JxaHYyOGEud2ViLXBsYXRmb3JtLnRlc3SCOnhuLS1uOGo2ZHM1M2x3
d2tycWh2MjhhLnhuLS1sdmUtNmxhZC5ub3Qtd2ViLXBsYXRmb3JtLnRlc3SCOnhu
LS1sdmUtNmxhZC54bi0tbjhqNmRzNTNsd3drcnFodjI4YS5ub3Qtd2ViLXBsYXRm
b3JtLnRlc3SCQXhuLS1uOGo2ZHM1M2x3d2tycWh2MjhhLnhuLS1uOGo2ZHM1M2x3
d2tycWh2MjhhLndlYi1wbGF0Zm9ybS50ZXN0gkV4bi0tbjhqNmRzNTNsd3drcnFo
djI4YS54bi0tbjhqNmRzNTNsd3drcnFodjI4YS5ub3Qtd2ViLXBsYXRmb3JtLnRl
c3QwDQYJKoZIhvcNAQELBQADggEBAEArqGXiU9bq6DUAgBLgnQ94r78IseTiLC0v
rgJOttJG8FPMLdNJxRHYpz8LRm/luyqgY3Ey23X1JAUqrWDjXVX8Js9Gq5dRaNYt
p40zPBP23E1u9EjEo/5Ih0e+HwBwNxNYQ8hwgcn8VeOeDYyKSew1VyrISeOKrRCX
u6BI0uNVuZEWYYatiB2SYltZJ669X/Qy2qKU2bvdriOAbVSRi/+PBqAvYL0vKON4
VhrLPGORS2j6obl/+ji/M8HXw5Q3jhzoiaUkNRVIfQ8Zt6p4b8gaewWgftmhE9L0
l4O1/3Cg5WYaz7lJUBfqphqI1FWW2a2gyC1wyS7C/wFmATElXCA=
-----END CERTIFICATE-----
