Certificate:
    Data:
        Version: 3 (0x2)
        Serial Number: 719467 (0xafa6b)
        Signature Algorithm: sha256WithRSAEncryption
        Issuer: CN=web-platform-tests
        Validity
            Not Before: Jun 12 01:18:38 2025 GMT
            Not After : Jun 12 01:18:38 2026 GMT
        Subject: CN=web-platform.test
        Subject Public Key Info:
            Public Key Algorithm: rsaEncryption
                Public-Key: (2048 bit)
                Modulus:
                    00:b2:a1:a8:29:7d:67:81:a9:4a:e7:69:31:58:65:
                    4b:9c:f0:36:6a:0e:a9:a9:07:e8:ef:18:d8:fd:bd:
                    4f:d7:39:cb:4d:1b:ed:17:58:8f:ee:09:af:69:f2:
                    44:b5:ba:0b:b4:7a:8f:bc:e6:1b:ea:1d:0a:4b:95:
                    ac:48:dd:ab:d9:a7:f9:79:1e:14:08:50:2f:93:8f:
                    1b:57:35:b3:ba:6e:19:1b:85:26:f4:f3:6a:86:ff:
                    cc:e1:09:8d:3c:98:9c:a8:6f:cc:f9:10:3f:a9:ec:
                    50:58:61:b1:e6:ab:1d:72:c9:21:28:ea:ea:cb:8a:
                    7e:3d:33:14:67:b3:0a:78:e8:9c:f1:d9:2d:ce:73:
                    60:66:96:d5:fa:76:fb:20:3e:b7:71:c4:38:c2:5c:
                    7f:81:0f:e6:3f:76:5e:69:d3:73:b1:a0:b8:e4:c4:
                    c6:47:47:74:2d:dc:92:ee:f8:ca:68:00:4b:5e:c8:
                    33:6a:3b:97:48:0d:72:bd:c9:07:8f:87:13:27:7f:
                    81:60:d4:c0:0d:84:28:d2:d8:f4:ee:ed:fe:55:4c:
                    59:a8:2d:3b:02:69:98:99:ba:6d:f3:36:44:ff:50:
                    e9:c8:87:3f:24:9d:40:2a:86:d5:d9:d8:f6:c2:88:
                    42:a6:56:a2:b7:93:f3:e3:f1:83:92:47:d9:42:08:
                    46:bd
                Exponent: 65537 (0x10001)
        X509v3 extensions:
            X509v3 Basic Constraints: 
                CA:FALSE
            X509v3 Subject Key Identifier: 
                D6:4A:B3:AC:80:DE:98:80:19:04:63:9C:B3:6A:0C:66:CF:B9:5F:D2
            X509v3 Authority Key Identifier: 
                4A:80:BC:64:60:3B:38:B6:0D:04:E2:D4:88:4B:60:76:1A:D9:A4:FB
            X509v3 Key Usage: 
                Digital Signature, Non Repudiation, Key Encipherment
            X509v3 Extended Key Usage: 
                TLS Web Server Authentication
            X509v3 Subject Alternative Name: 
                DNS:web-platform.test, DNS:not-web-platform.test, DNS:www.web-platform.test, DNS:www1.web-platform.test, DNS:www2.web-platform.test, DNS:www.www.web-platform.test, DNS:www.not-web-platform.test, DNS:www2.www.web-platform.test, DNS:www1.www.web-platform.test, DNS:www2.not-web-platform.test, DNS:www1.not-web-platform.test, DNS:www.www1.web-platform.test, DNS:www.www2.web-platform.test, DNS:www2.www1.web-platform.test, DNS:www1.www2.web-platform.test, DNS:www1.www1.web-platform.test, DNS:www2.www2.web-platform.test, DNS:www.www.not-web-platform.test, DNS:www2.www.not-web-platform.test, DNS:www.www1.not-web-platform.test, DNS:xn--lve-6lad.web-platform.test, DNS:www1.www.not-web-platform.test, DNS:www.www2.not-web-platform.test, DNS:www1.www2.not-web-platform.test, DNS:www1.www1.not-web-platform.test, DNS:www2.www2.not-web-platform.test, DNS:www2.www1.not-web-platform.test, DNS:www.xn--lve-6lad.web-platform.test, DNS:xn--lve-6lad.not-web-platform.test, DNS:xn--lve-6lad.www.web-platform.test, DNS:xn--lve-6lad.www1.web-platform.test, DNS:www1.xn--lve-6lad.web-platform.test, DNS:www2.xn--lve-6lad.web-platform.test, DNS:xn--lve-6lad.www2.web-platform.test, DNS:www.xn--lve-6lad.not-web-platform.test, DNS:xn--lve-6lad.www.not-web-platform.test, DNS:xn--lve-6lad.www2.not-web-platform.test, DNS:www1.xn--lve-6lad.not-web-platform.test, DNS:www2.xn--lve-6lad.not-web-platform.test, DNS:xn--lve-6lad.www1.not-web-platform.test, DNS:xn--n8j6ds53lwwkrqhv28a.web-platform.test, DNS:xn--lve-6lad.xn--lve-6lad.web-platform.test, DNS:xn--n8j6ds53lwwkrqhv28a.www.web-platform.test, DNS:xn--n8j6ds53lwwkrqhv28a.not-web-platform.test, DNS:www.xn--n8j6ds53lwwkrqhv28a.web-platform.test, DNS:xn--n8j6ds53lwwkrqhv28a.www2.web-platform.test, DNS:xn--n8j6ds53lwwkrqhv28a.www1.web-platform.test, DNS:www2.xn--n8j6ds53lwwkrqhv28a.web-platform.test, DNS:www1.xn--n8j6ds53lwwkrqhv28a.web-platform.test, DNS:xn--lve-6lad.xn--lve-6lad.not-web-platform.test, DNS:www.xn--n8j6ds53lwwkrqhv28a.not-web-platform.test, DNS:xn--n8j6ds53lwwkrqhv28a.www.not-web-platform.test, DNS:www2.xn--n8j6ds53lwwkrqhv28a.not-web-platform.test, DNS:www1.xn--n8j6ds53lwwkrqhv28a.not-web-platform.test, DNS:xn--n8j6ds53lwwkrqhv28a.www2.not-web-platform.test, DNS:xn--n8j6ds53lwwkrqhv28a.www1.not-web-platform.test, DNS:xn--n8j6ds53lwwkrqhv28a.xn--lve-6lad.web-platform.test, DNS:xn--lve-6lad.xn--n8j6ds53lwwkrqhv28a.web-platform.test, DNS:xn--lve-6lad.xn--n8j6ds53lwwkrqhv28a.not-web-platform.test, DNS:xn--n8j6ds53lwwkrqhv28a.xn--lve-6lad.not-web-platform.test, DNS:xn--n8j6ds53lwwkrqhv28a.xn--n8j6ds53lwwkrqhv28a.web-platform.test, DNS:xn--n8j6ds53lwwkrqhv28a.xn--n8j6ds53lwwkrqhv28a.not-web-platform.test
    Signature Algorithm: sha256WithRSAEncryption
    Signature Value:
        ad:fd:86:c0:90:e1:59:8a:1b:7d:50:fe:c8:cd:6a:26:ee:b6:
        64:0b:46:92:88:10:2e:bc:8d:fd:9f:e9:72:95:56:3e:bc:4b:
        a5:11:9b:ab:ec:d8:68:bc:0e:f3:0b:d0:ef:89:b3:d9:47:8a:
        2f:dc:fa:84:0b:74:0e:64:e6:ae:2a:4e:46:76:0c:9c:04:86:
        eb:ed:1b:d6:ca:0c:58:7b:82:a8:95:df:63:3d:0c:1b:89:91:
        af:02:4c:d0:c9:4c:5d:96:e1:4a:8d:37:a8:81:54:9f:75:1c:
        7d:f6:19:83:fe:b4:1c:1f:f3:5f:ae:5a:45:1c:30:99:04:14:
        5f:10:55:50:8c:0a:da:61:ff:2b:f4:c7:18:fd:22:6f:3d:7d:
        b8:1f:6c:de:1d:e6:be:ec:2d:72:48:4f:f5:5c:9d:eb:3b:b9:
        c9:bb:55:d8:1a:c7:52:fd:9d:33:7d:74:29:7d:22:66:bf:76:
        5e:dd:3d:9e:3b:a8:5d:f7:80:8a:37:d4:2e:6a:88:1e:41:ed:
        a0:6e:e4:1d:d1:47:85:07:cf:ab:9f:66:b3:a6:35:5d:84:e3:
        70:ac:95:f9:7a:48:fb:af:b9:93:72:5e:81:41:c0:c0:08:db:
        eb:31:f7:3f:64:d2:5c:75:60:f7:8a:5c:f3:06:a8:42:e8:3c:
        3d:c6:81:9b
-----BEGIN CERTIFICATE-----
MIIMsjCCC5qgAwIBAgIDCvprMA0GCSqGSIb3DQEBCwUAMB0xGzAZBgNVBAMMEndl
Yi1wbGF0Zm9ybS10ZXN0czAeFw0yNTA2MTIwMTE4MzhaFw0yNjA2MTIwMTE4Mzha
MBwxGjAYBgNVBAMMEXdlYi1wbGF0Zm9ybS50ZXN0MIIBIjANBgkqhkiG9w0BAQEF
AAOCAQ8AMIIBCgKCAQEAsqGoKX1ngalK52kxWGVLnPA2ag6pqQfo7xjY/b1P1znL
TRvtF1iP7gmvafJEtboLtHqPvOYb6h0KS5WsSN2r2af5eR4UCFAvk48bVzWzum4Z
G4Um9PNqhv/M4QmNPJicqG/M+RA/qexQWGGx5qsdcskhKOrqy4p+PTMUZ7MKeOic
8dktznNgZpbV+nb7ID63ccQ4wlx/gQ/mP3ZeadNzsaC45MTGR0d0LdyS7vjKaABL
XsgzajuXSA1yvckHj4cTJ3+BYNTADYQo0tj07u3+VUxZqC07AmmYmbpt8zZE/1Dp
yIc/JJ1AKobV2dj2wohCplait5Pz4/GDkkfZQghGvQIDAQABo4IJ+jCCCfYwCQYD
VR0TBAIwADAdBgNVHQ4EFgQU1kqzrIDemIAZBGOcs2oMZs+5X9IwHwYDVR0jBBgw
FoAUSoC8ZGA7OLYNBOLUiEtgdhrZpPswCwYDVR0PBAQDAgXgMBMGA1UdJQQMMAoG
CCsGAQUFBwMBMIIJhQYDVR0RBIIJfDCCCXiCEXdlYi1wbGF0Zm9ybS50ZXN0ghVu
b3Qtd2ViLXBsYXRmb3JtLnRlc3SCFXd3dy53ZWItcGxhdGZvcm0udGVzdIIWd3d3
MS53ZWItcGxhdGZvcm0udGVzdIIWd3d3Mi53ZWItcGxhdGZvcm0udGVzdIIZd3d3
Lnd3dy53ZWItcGxhdGZvcm0udGVzdIIZd3d3Lm5vdC13ZWItcGxhdGZvcm0udGVz
dIIad3d3Mi53d3cud2ViLXBsYXRmb3JtLnRlc3SCGnd3dzEud3d3LndlYi1wbGF0
Zm9ybS50ZXN0ghp3d3cyLm5vdC13ZWItcGxhdGZvcm0udGVzdIIad3d3MS5ub3Qt
d2ViLXBsYXRmb3JtLnRlc3SCGnd3dy53d3cxLndlYi1wbGF0Zm9ybS50ZXN0ghp3
d3cud3d3Mi53ZWItcGxhdGZvcm0udGVzdIIbd3d3Mi53d3cxLndlYi1wbGF0Zm9y
bS50ZXN0ght3d3cxLnd3dzIud2ViLXBsYXRmb3JtLnRlc3SCG3d3dzEud3d3MS53
ZWItcGxhdGZvcm0udGVzdIIbd3d3Mi53d3cyLndlYi1wbGF0Zm9ybS50ZXN0gh13
d3cud3d3Lm5vdC13ZWItcGxhdGZvcm0udGVzdIIed3d3Mi53d3cubm90LXdlYi1w
bGF0Zm9ybS50ZXN0gh53d3cud3d3MS5ub3Qtd2ViLXBsYXRmb3JtLnRlc3SCHnhu
LS1sdmUtNmxhZC53ZWItcGxhdGZvcm0udGVzdIIed3d3MS53d3cubm90LXdlYi1w
bGF0Zm9ybS50ZXN0gh53d3cud3d3Mi5ub3Qtd2ViLXBsYXRmb3JtLnRlc3SCH3d3
dzEud3d3Mi5ub3Qtd2ViLXBsYXRmb3JtLnRlc3SCH3d3dzEud3d3MS5ub3Qtd2Vi
LXBsYXRmb3JtLnRlc3SCH3d3dzIud3d3Mi5ub3Qtd2ViLXBsYXRmb3JtLnRlc3SC
H3d3dzIud3d3MS5ub3Qtd2ViLXBsYXRmb3JtLnRlc3SCInd3dy54bi0tbHZlLTZs
YWQud2ViLXBsYXRmb3JtLnRlc3SCInhuLS1sdmUtNmxhZC5ub3Qtd2ViLXBsYXRm
b3JtLnRlc3SCInhuLS1sdmUtNmxhZC53d3cud2ViLXBsYXRmb3JtLnRlc3SCI3hu
LS1sdmUtNmxhZC53d3cxLndlYi1wbGF0Zm9ybS50ZXN0giN3d3cxLnhuLS1sdmUt
NmxhZC53ZWItcGxhdGZvcm0udGVzdIIjd3d3Mi54bi0tbHZlLTZsYWQud2ViLXBs
YXRmb3JtLnRlc3SCI3huLS1sdmUtNmxhZC53d3cyLndlYi1wbGF0Zm9ybS50ZXN0
giZ3d3cueG4tLWx2ZS02bGFkLm5vdC13ZWItcGxhdGZvcm0udGVzdIImeG4tLWx2
ZS02bGFkLnd3dy5ub3Qtd2ViLXBsYXRmb3JtLnRlc3SCJ3huLS1sdmUtNmxhZC53
d3cyLm5vdC13ZWItcGxhdGZvcm0udGVzdIInd3d3MS54bi0tbHZlLTZsYWQubm90
LXdlYi1wbGF0Zm9ybS50ZXN0gid3d3cyLnhuLS1sdmUtNmxhZC5ub3Qtd2ViLXBs
YXRmb3JtLnRlc3SCJ3huLS1sdmUtNmxhZC53d3cxLm5vdC13ZWItcGxhdGZvcm0u
dGVzdIIpeG4tLW44ajZkczUzbHd3a3JxaHYyOGEud2ViLXBsYXRmb3JtLnRlc3SC
K3huLS1sdmUtNmxhZC54bi0tbHZlLTZsYWQud2ViLXBsYXRmb3JtLnRlc3SCLXhu
LS1uOGo2ZHM1M2x3d2tycWh2MjhhLnd3dy53ZWItcGxhdGZvcm0udGVzdIIteG4t
LW44ajZkczUzbHd3a3JxaHYyOGEubm90LXdlYi1wbGF0Zm9ybS50ZXN0gi13d3cu
eG4tLW44ajZkczUzbHd3a3JxaHYyOGEud2ViLXBsYXRmb3JtLnRlc3SCLnhuLS1u
OGo2ZHM1M2x3d2tycWh2MjhhLnd3dzIud2ViLXBsYXRmb3JtLnRlc3SCLnhuLS1u
OGo2ZHM1M2x3d2tycWh2MjhhLnd3dzEud2ViLXBsYXRmb3JtLnRlc3SCLnd3dzIu
eG4tLW44ajZkczUzbHd3a3JxaHYyOGEud2ViLXBsYXRmb3JtLnRlc3SCLnd3dzEu
eG4tLW44ajZkczUzbHd3a3JxaHYyOGEud2ViLXBsYXRmb3JtLnRlc3SCL3huLS1s
dmUtNmxhZC54bi0tbHZlLTZsYWQubm90LXdlYi1wbGF0Zm9ybS50ZXN0gjF3d3cu
eG4tLW44ajZkczUzbHd3a3JxaHYyOGEubm90LXdlYi1wbGF0Zm9ybS50ZXN0gjF4
bi0tbjhqNmRzNTNsd3drcnFodjI4YS53d3cubm90LXdlYi1wbGF0Zm9ybS50ZXN0
gjJ3d3cyLnhuLS1uOGo2ZHM1M2x3d2tycWh2MjhhLm5vdC13ZWItcGxhdGZvcm0u
dGVzdIIyd3d3MS54bi0tbjhqNmRzNTNsd3drcnFodjI4YS5ub3Qtd2ViLXBsYXRm
b3JtLnRlc3SCMnhuLS1uOGo2ZHM1M2x3d2tycWh2MjhhLnd3dzIubm90LXdlYi1w
bGF0Zm9ybS50ZXN0gjJ4bi0tbjhqNmRzNTNsd3drcnFodjI4YS53d3cxLm5vdC13
ZWItcGxhdGZvcm0udGVzdII2eG4tLW44ajZkczUzbHd3a3JxaHYyOGEueG4tLWx2
ZS02bGFkLndlYi1wbGF0Zm9ybS50ZXN0gjZ4bi0tbHZlLTZsYWQueG4tLW44ajZk
czUzbHd3a3JxaHYyOGEud2ViLXBsYXRmb3JtLnRlc3SCOnhuLS1sdmUtNmxhZC54
bi0tbjhqNmRzNTNsd3drcnFodjI4YS5ub3Qtd2ViLXBsYXRmb3JtLnRlc3SCOnhu
LS1uOGo2ZHM1M2x3d2tycWh2MjhhLnhuLS1sdmUtNmxhZC5ub3Qtd2ViLXBsYXRm
b3JtLnRlc3SCQXhuLS1uOGo2ZHM1M2x3d2tycWh2MjhhLnhuLS1uOGo2ZHM1M2x3
d2tycWh2MjhhLndlYi1wbGF0Zm9ybS50ZXN0gkV4bi0tbjhqNmRzNTNsd3drcnFo
djI4YS54bi0tbjhqNmRzNTNsd3drcnFodjI4YS5ub3Qtd2ViLXBsYXRmb3JtLnRl
c3QwDQYJKoZIhvcNAQELBQADggEBAK39hsCQ4VmKG31Q/sjNaibutmQLRpKIEC68
jf2f6XKVVj68S6URm6vs2Gi8DvML0O+Js9lHii/c+oQLdA5k5q4qTkZ2DJwEhuvt
G9bKDFh7gqiV32M9DBuJka8CTNDJTF2W4UqNN6iBVJ91HH32GYP+tBwf81+uWkUc
MJkEFF8QVVCMCtph/yv0xxj9Im89fbgfbN4d5r7sLXJIT/Vcnes7ucm7Vdgax1L9
nTN9dCl9Ima/dl7dPZ47qF33gIo31C5qiB5B7aBu5B3RR4UHz6ufZrOmNV2E43Cs
lfl6SPuvuZNyXoFBwMAI2+sx9z9k0lx1YPeKXPMGqELoPD3GgZs=
-----END CERTIFICATE-----
