Certificate:
    Data:
        Version: 3 (0x2)
        Serial Number: 2 (0x2)
    Signature Algorithm: sha256WithRSAEncryption
        Issuer: CN=web-platform-tests
        Validity
            Not Before: May  7 16:35:56 2016 GMT
            Not After : Jun  6 16:35:56 2016 GMT
        Subject: CN=web-platform.test
        Subject Public Key Info:
            Public Key Algorithm: rsaEncryption
                Public-Key: (2048 bit)
                Modulus:
                    00:bd:f6:d4:05:e3:ca:ff:17:94:f1:fa:be:4c:2c:
                    b9:3e:b5:d2:6b:32:56:29:37:76:a7:53:cd:85:b8:
                    67:bf:50:45:79:20:c6:cb:c8:dc:68:f9:d4:58:3d:
                    46:0c:a6:09:2a:e1:f0:e6:ff:22:b3:e8:0a:1b:9d:
                    2a:56:e4:42:57:c3:fe:3c:29:24:f4:98:64:1d:97:
                    36:cd:fb:d8:b4:13:94:b4:a8:73:67:3d:29:62:84:
                    12:17:d6:c8:36:71:7e:16:1e:ef:19:99:fe:f7:2f:
                    d0:88:be:8d:b3:db:9f:e0:2e:6a:b4:db:23:22:4f:
                    23:ed:7a:d1:e9:47:df:fe:c9:94:1b:4f:83:71:b4:
                    fb:75:c7:74:33:82:2c:f0:ed:f1:05:40:87:44:c0:
                    e9:c2:a4:a4:66:26:93:bd:32:04:07:a6:28:84:75:
                    67:3f:a4:3a:2d:65:a9:6e:e4:b9:8a:17:63:60:42:
                    1c:a0:90:82:2c:22:96:cb:20:24:c6:10:ed:fd:90:
                    48:fa:40:ed:fb:9f:39:58:33:5d:95:8b:ae:fe:92:
                    2a:3d:56:fb:da:9f:8f:36:cc:ec:c3:1d:e7:ba:ff:
                    57:c7:70:6d:e7:4d:be:9c:d2:cb:b2:35:45:99:04:
                    7c:98:cb:06:71:58:b6:26:3f:4d:95:ee:b1:a6:f1:
                    fb:cf
                Exponent: 65537 (0x10001)
        X509v3 extensions:
            X509v3 Basic Constraints: 
                CA:FALSE
            X509v3 Subject Key Identifier: 
                97:16:9F:74:19:4F:2B:09:35:B8:E5:4B:B0:B5:BA:82:63:A9:B8:3A
            X509v3 Authority Key Identifier: 
                keyid:E6:B7:AE:41:4C:5B:DF:71:06:A8:49:35:61:2E:9D:F3:52:8A:74:75

            X509v3 Key Usage: 
                Digital Signature, Non Repudiation, Key Encipherment
            X509v3 Extended Key Usage: 
                TLS Web Server Authentication
            X509v3 Subject Alternative Name: 
                DNS:web-platform.test, DNS:www.web-platform.test, DNS:xn--n8j6ds53lwwkrqhv28a.web-platform.test, DNS:xn--lve-6lad.web-platform.test, DNS:www2.web-platform.test, DNS:www1.web-platform.test
    Signature Algorithm: sha256WithRSAEncryption
         5a:16:e6:59:7e:26:da:e0:a1:b2:de:af:92:a6:fb:34:b8:c7:
         3f:f8:6d:a9:d7:3b:55:12:b3:0d:33:5c:2a:8a:b2:93:b3:95:
         0c:be:ba:93:2a:d5:1e:7a:5a:2a:6c:5c:b2:40:3d:51:7a:28:
         74:a2:ac:54:bc:1e:ba:a9:06:28:27:0a:47:1c:31:b7:78:19:
         d1:94:f4:fa:78:40:94:36:a6:f7:28:92:86:75:49:5d:7d:2d:
         ba:22:b7:5d:06:97:e1:a1:01:b6:19:e2:5c:93:24:80:9a:ce:
         32:2c:33:da:65:ea:3e:9f:42:83:1d:0f:dc:f0:19:51:7e:b6:
         48:63:13:e7:e1:63:65:d7:cf:bf:b2:9c:aa:46:47:43:40:90:
         4f:c3:03:9f:f4:5c:41:cc:6e:8a:dc:3a:c0:5d:39:61:6d:48:
         be:4e:a6:54:62:8d:44:b5:4b:a6:7b:0c:c7:92:01:2e:06:23:
         22:12:33:76:b6:50:e6:9f:52:a9:be:a0:41:fb:97:8f:7f:52:
         d9:f1:9a:73:59:0e:01:be:95:b0:90:72:e3:73:5d:9f:34:99:
         1f:30:03:52:9f:cb:99:97:37:be:44:2b:32:5d:a0:d7:92:eb:
         74:43:75:2b:28:8b:65:b7:39:59:2a:dc:84:aa:42:7f:80:e0:
         cc:77:89:98
-----BEGIN CERTIFICATE-----
MIID2jCCAsKgAwIBAgIBAjANBgkqhkiG9w0BAQsFADAdMRswGQYDVQQDDBJ3ZWIt
cGxhdGZvcm0tdGVzdHMwHhcNMTYwNTA3MTYzNTU2WhcNMTYwNjA2MTYzNTU2WjAc
MRowGAYDVQQDDBF3ZWItcGxhdGZvcm0udGVzdDCCASIwDQYJKoZIhvcNAQEBBQAD
ggEPADCCAQoCggEBAL321AXjyv8XlPH6vkwsuT610msyVik3dqdTzYW4Z79QRXkg
xsvI3Gj51Fg9RgymCSrh8Ob/IrPoChudKlbkQlfD/jwpJPSYZB2XNs372LQTlLSo
c2c9KWKEEhfWyDZxfhYe7xmZ/vcv0Ii+jbPbn+AuarTbIyJPI+160elH3/7JlBtP
g3G0+3XHdDOCLPDt8QVAh0TA6cKkpGYmk70yBAemKIR1Zz+kOi1lqW7kuYoXY2BC
HKCQgiwilssgJMYQ7f2QSPpA7fufOVgzXZWLrv6SKj1W+9qfjzbM7MMd57r/V8dw
bedNvpzSy7I1RZkEfJjLBnFYtiY/TZXusabx+88CAwEAAaOCASQwggEgMAkGA1Ud
EwQCMAAwHQYDVR0OBBYEFJcWn3QZTysJNbjlS7C1uoJjqbg6MB8GA1UdIwQYMBaA
FOa3rkFMW99xBqhJNWEunfNSinR1MAsGA1UdDwQEAwIF4DATBgNVHSUEDDAKBggr
BgEFBQcDATCBsAYDVR0RBIGoMIGlghF3ZWItcGxhdGZvcm0udGVzdIIVd3d3Lndl
Yi1wbGF0Zm9ybS50ZXN0gil4bi0tbjhqNmRzNTNsd3drcnFodjI4YS53ZWItcGxh
dGZvcm0udGVzdIIeeG4tLWx2ZS02bGFkLndlYi1wbGF0Zm9ybS50ZXN0ghZ3d3cy
LndlYi1wbGF0Zm9ybS50ZXN0ghZ3d3cxLndlYi1wbGF0Zm9ybS50ZXN0MA0GCSqG
SIb3DQEBCwUAA4IBAQBaFuZZfiba4KGy3q+Spvs0uMc/+G2p1ztVErMNM1wqirKT
s5UMvrqTKtUeeloqbFyyQD1Reih0oqxUvB66qQYoJwpHHDG3eBnRlPT6eECUNqb3
KJKGdUldfS26IrddBpfhoQG2GeJckySAms4yLDPaZeo+n0KDHQ/c8BlRfrZIYxPn
4WNl18+/spyqRkdDQJBPwwOf9FxBzG6K3DrAXTlhbUi+TqZUYo1EtUumewzHkgEu
BiMiEjN2tlDmn1KpvqBB+5ePf1LZ8ZpzWQ4BvpWwkHLjc12fNJkfMANSn8uZlze+
RCsyXaDXkut0Q3UrKItltzlZKtyEqkJ/gODMd4mY
-----END CERTIFICATE-----
