Certificate:
    Data:
        Version: 3 (0x2)
        Serial Number: 1 (0x1)
    Signature Algorithm: sha256WithRSAEncryption
        Issuer: CN=web-platform-tests
        Validity
            Not Before: May  6 19:30:22 2016 GMT
            Not After : Jun  5 19:30:22 2016 GMT
        Subject: CN=web-platform-tests
        Subject Public Key Info:
            Public Key Algorithm: rsaEncryption
                Public-Key: (2048 bit)
                Modulus:
                    00:e5:66:50:ff:2c:53:bf:d0:93:3a:8f:d2:66:89:
                    0b:80:54:27:b5:39:9a:56:61:40:5c:b9:a3:d9:53:
                    d0:66:64:96:9a:11:ba:17:ad:2b:15:8f:59:ec:17:
                    32:ee:fa:3f:53:c8:42:de:77:52:c1:18:b7:64:70:
                    30:4d:79:8b:9c:89:68:d7:fa:e2:45:e7:69:10:c9:
                    2c:05:d0:d5:fe:e5:99:5e:b6:d6:26:be:ec:87:62:
                    55:5c:d0:9e:da:1d:b7:3c:3b:8d:54:33:55:d1:52:
                    7e:ad:4f:7f:e9:cf:54:81:68:81:65:8e:77:80:e0:
                    99:20:d2:ab:d3:2f:63:d9:ba:04:1f:d6:3f:25:df:
                    fd:96:42:4f:fb:ce:96:72:6d:7b:92:bc:01:6a:36:
                    2a:63:a3:22:bb:7a:2e:45:80:3d:5a:d0:39:fc:c6:
                    53:89:ab:eb:51:1d:a3:a6:e8:ae:7f:84:41:e0:43:
                    e4:cb:ed:b9:b8:a5:14:83:be:f2:44:17:2a:70:0c:
                    25:33:03:a3:2a:97:f1:cb:64:9b:6e:59:be:45:8e:
                    39:e4:f0:b4:b7:a4:1b:df:ac:ff:8e:2d:15:3b:d9:
                    c9:00:3d:7b:5b:21:51:79:78:91:16:95:f5:9c:44:
                    87:dd:0a:d1:e0:ad:6c:f0:49:5f:c0:f8:58:4e:16:
                    c8:bb
                Exponent: 65537 (0x10001)
        X509v3 extensions:
            X509v3 Basic Constraints: 
                CA:TRUE
            X509v3 Subject Key Identifier: 
                D0:F2:71:26:30:36:78:73:F7:B6:7D:1D:95:58:2F:51:D3:34:F7:E3
            X509v3 Authority Key Identifier: 
                keyid:D0:F2:71:26:30:36:78:73:F7:B6:7D:1D:95:58:2F:51:D3:34:F7:E3
                DirName:/CN=web-platform-tests
                serial:01

            X509v3 Key Usage: 
                Certificate Sign
            X509v3 Extended Key Usage: 
                TLS Web Server Authentication
    Signature Algorithm: sha256WithRSAEncryption
         5b:66:e9:7b:5c:05:ee:fd:d8:fd:a9:b6:16:96:3d:5e:00:2d:
         57:49:32:25:3b:e0:a6:19:cd:d2:e4:26:ac:3a:96:4c:ed:d6:
         4f:20:5c:1f:2b:c3:a9:a7:72:f4:97:49:e2:73:4a:f0:a5:8b:
         19:1e:4e:76:84:46:0a:4d:dc:42:cb:11:03:af:44:73:90:74:
         09:3e:b9:07:31:4f:e6:7b:c3:fa:0e:0b:0d:e0:00:85:1b:b6:
         f2:03:c8:85:3e:a2:43:45:7d:6c:24:07:c6:89:3f:81:79:26:
         d1:37:b6:1c:27:b2:35:09:a3:2e:51:38:b2:9d:83:fa:96:2e:
         00:78:47:12:66:4a:20:a8:aa:fc:94:19:52:ef:5b:41:d5:1f:
         da:fc:ad:c8:f3:ab:36:ae:42:65:4f:0d:85:f3:ab:87:aa:73:
         48:fe:ca:5c:f5:f7:dd:cc:3a:ff:49:f5:7f:d2:89:92:dc:2b:
         cd:5b:24:12:2c:fb:4e:63:15:f1:a3:a2:84:fd:32:d2:2f:bf:
         92:d1:b8:4d:61:23:e0:54:3a:19:b9:73:ad:89:bb:dc:5b:a6:
         55:03:dd:43:6d:68:25:0e:0a:8f:03:62:63:1e:01:eb:7a:0a:
         31:67:e9:a6:c7:57:6a:e1:a8:8c:79:63:b2:b3:92:33:70:bc:
         84:c9:ed:3d
-----BEGIN CERTIFICATE-----
MIIDTzCCAjegAwIBAgIBATANBgkqhkiG9w0BAQsFADAdMRswGQYDVQQDDBJ3ZWIt
cGxhdGZvcm0tdGVzdHMwHhcNMTYwNTA2MTkzMDIyWhcNMTYwNjA1MTkzMDIyWjAd
MRswGQYDVQQDDBJ3ZWItcGxhdGZvcm0tdGVzdHMwggEiMA0GCSqGSIb3DQEBAQUA
A4IBDwAwggEKAoIBAQDlZlD/LFO/0JM6j9JmiQuAVCe1OZpWYUBcuaPZU9BmZJaa
EboXrSsVj1nsFzLu+j9TyELed1LBGLdkcDBNeYuciWjX+uJF52kQySwF0NX+5Zle
ttYmvuyHYlVc0J7aHbc8O41UM1XRUn6tT3/pz1SBaIFljneA4Jkg0qvTL2PZugQf
1j8l3/2WQk/7zpZybXuSvAFqNipjoyK7ei5FgD1a0Dn8xlOJq+tRHaOm6K5/hEHg
Q+TL7bm4pRSDvvJEFypwDCUzA6Mql/HLZJtuWb5Fjjnk8LS3pBvfrP+OLRU72ckA
PXtbIVF5eJEWlfWcRIfdCtHgrWzwSV/A+FhOFsi7AgMBAAGjgZkwgZYwDAYDVR0T
BAUwAwEB/zAdBgNVHQ4EFgQU0PJxJjA2eHP3tn0dlVgvUdM09+MwRQYDVR0jBD4w
PIAU0PJxJjA2eHP3tn0dlVgvUdM09+OhIaQfMB0xGzAZBgNVBAMMEndlYi1wbGF0
Zm9ybS10ZXN0c4IBATALBgNVHQ8EBAMCAgQwEwYDVR0lBAwwCgYIKwYBBQUHAwEw
DQYJKoZIhvcNAQELBQADggEBAFtm6XtcBe792P2pthaWPV4ALVdJMiU74KYZzdLk
Jqw6lkzt1k8gXB8rw6mncvSXSeJzSvClixkeTnaERgpN3ELLEQOvRHOQdAk+uQcx
T+Z7w/oOCw3gAIUbtvIDyIU+okNFfWwkB8aJP4F5JtE3thwnsjUJoy5ROLKdg/qW
LgB4RxJmSiCoqvyUGVLvW0HVH9r8rcjzqzauQmVPDYXzq4eqc0j+ylz1993MOv9J
9X/SiZLcK81bJBIs+05jFfGjooT9MtIvv5LRuE1hI+BUOhm5c62Ju9xbplUD3UNt
aCUOCo8DYmMeAet6CjFn6abHV2rhqIx5Y7KzkjNwvITJ7T0=
-----END CERTIFICATE-----
