Certificate:
    Data:
        Version: 3 (0x2)
        Serial Number: 1 (0x1)
    Signature Algorithm: sha256WithRSAEncryption
        Issuer: CN=web-platform-tests
        Validity
            Not Before: May  7 16:35:56 2016 GMT
            Not After : Jun  6 16:35:56 2016 GMT
        Subject: CN=web-platform-tests
        Subject Public Key Info:
            Public Key Algorithm: rsaEncryption
                Public-Key: (2048 bit)
                Modulus:
                    00:b9:5d:af:08:ca:49:5a:93:c9:0c:b5:13:10:5c:
                    42:2e:69:9d:79:3e:54:f8:d3:8d:96:19:89:63:11:
                    ba:a7:68:7f:32:86:08:24:0b:0e:31:63:2a:ef:49:
                    be:d8:d3:2f:64:72:14:e1:e4:9c:c6:22:3c:36:7e:
                    d7:6e:e3:1d:d0:52:43:b7:fa:11:a6:9e:ea:cc:5b:
                    fd:27:89:ff:95:f1:7f:f9:82:ee:c1:4a:c3:e2:68:
                    ce:dd:52:14:33:95:e6:51:0c:6d:ba:3b:68:be:4f:
                    bb:6e:bd:7e:07:40:2f:c4:87:98:2d:dc:fe:18:49:
                    36:54:c7:e1:6b:91:ab:a5:1b:4c:f1:b1:3a:23:d8:
                    44:7e:1d:ca:dd:71:6f:ac:5a:f5:3d:b6:66:5b:f7:
                    69:de:a5:a8:11:75:91:15:56:7a:e6:47:2a:26:4c:
                    10:4d:91:e3:79:84:14:a0:fa:86:2d:46:9a:01:c0:
                    e7:ba:a0:e0:76:98:2e:b8:7e:32:98:d3:09:a1:98:
                    d3:c0:d9:21:51:7e:20:7a:a2:50:51:d9:bf:00:c4:
                    ae:6f:ba:9b:4c:a0:1d:4b:76:0b:cc:30:0c:d5:fb:
                    06:aa:f0:08:62:e6:05:f5:9c:56:97:55:b4:cc:98:
                    d3:26:e3:d1:4f:b5:55:72:be:e7:de:ce:60:94:d1:
                    63:39
                Exponent: 65537 (0x10001)
        X509v3 extensions:
            X509v3 Basic Constraints: 
                CA:TRUE
            X509v3 Subject Key Identifier: 
                E6:B7:AE:41:4C:5B:DF:71:06:A8:49:35:61:2E:9D:F3:52:8A:74:75
            X509v3 Authority Key Identifier: 
                keyid:E6:B7:AE:41:4C:5B:DF:71:06:A8:49:35:61:2E:9D:F3:52:8A:74:75
                DirName:/CN=web-platform-tests
                serial:01

            X509v3 Key Usage: 
                Certificate Sign
            X509v3 Extended Key Usage: 
                TLS Web Server Authentication
    Signature Algorithm: sha256WithRSAEncryption
         7d:da:50:30:7f:9c:5d:ed:b3:35:7c:a3:42:1b:6c:5c:da:2d:
         41:df:4f:3e:eb:67:5b:ee:9f:e9:19:65:0d:b9:4b:ee:84:f5:
         a9:d1:ae:fa:ba:f7:76:0d:23:57:91:19:bf:bb:9f:4a:d5:f3:
         92:35:7a:85:93:bb:40:ce:bd:a2:df:3e:ce:5c:4d:d0:d3:89:
         34:17:d8:52:99:7c:74:40:76:ac:1c:f0:48:1a:ef:0e:0f:ee:
         45:a9:ac:aa:c5:cb:17:4c:36:1e:19:de:2c:99:f4:0c:11:09:
         41:a3:c8:f1:80:f4:f5:60:78:7e:88:12:30:2c:79:80:34:92:
         e8:f5:18:33:68:0f:f7:82:ea:af:8d:79:af:03:8b:2b:4c:a3:
         03:e6:f1:9a:cb:af:62:e4:93:d1:43:cf:94:08:20:b9:24:9f:
         1c:b0:d3:b2:8c:76:26:bf:39:b1:c6:94:e4:9a:72:35:fc:d0:
         2d:ee:f4:cf:d6:0d:14:d8:47:2f:c0:b6:e3:61:27:7a:5b:92:
         f7:f6:56:5e:6c:65:14:4d:db:9c:fd:b0:4e:66:42:5f:8f:94:
         fd:b4:a5:f6:ec:20:cf:8e:6c:59:21:8a:4e:7b:f9:53:62:d3:
         4b:e2:65:d5:d5:59:25:80:e5:c8:22:9b:b7:21:c3:51:18:1c:
         46:03:a2:1c
-----BEGIN CERTIFICATE-----
MIIDTzCCAjegAwIBAgIBATANBgkqhkiG9w0BAQsFADAdMRswGQYDVQQDDBJ3ZWIt
cGxhdGZvcm0tdGVzdHMwHhcNMTYwNTA3MTYzNTU2WhcNMTYwNjA2MTYzNTU2WjAd
MRswGQYDVQQDDBJ3ZWItcGxhdGZvcm0tdGVzdHMwggEiMA0GCSqGSIb3DQEBAQUA
A4IBDwAwggEKAoIBAQC5Xa8Iyklak8kMtRMQXEIuaZ15PlT4042WGYljEbqnaH8y
hggkCw4xYyrvSb7Y0y9kchTh5JzGIjw2ftdu4x3QUkO3+hGmnurMW/0nif+V8X/5
gu7BSsPiaM7dUhQzleZRDG26O2i+T7tuvX4HQC/Eh5gt3P4YSTZUx+FrkaulG0zx
sToj2ER+HcrdcW+sWvU9tmZb92nepagRdZEVVnrmRyomTBBNkeN5hBSg+oYtRpoB
wOe6oOB2mC64fjKY0wmhmNPA2SFRfiB6olBR2b8AxK5vuptMoB1LdgvMMAzV+waq
8Ahi5gX1nFaXVbTMmNMm49FPtVVyvufezmCU0WM5AgMBAAGjgZkwgZYwDAYDVR0T
BAUwAwEB/zAdBgNVHQ4EFgQU5reuQUxb33EGqEk1YS6d81KKdHUwRQYDVR0jBD4w
PIAU5reuQUxb33EGqEk1YS6d81KKdHWhIaQfMB0xGzAZBgNVBAMMEndlYi1wbGF0
Zm9ybS10ZXN0c4IBATALBgNVHQ8EBAMCAgQwEwYDVR0lBAwwCgYIKwYBBQUHAwEw
DQYJKoZIhvcNAQELBQADggEBAH3aUDB/nF3tszV8o0IbbFzaLUHfTz7rZ1vun+kZ
ZQ25S+6E9anRrvq693YNI1eRGb+7n0rV85I1eoWTu0DOvaLfPs5cTdDTiTQX2FKZ
fHRAdqwc8Ega7w4P7kWprKrFyxdMNh4Z3iyZ9AwRCUGjyPGA9PVgeH6IEjAseYA0
kuj1GDNoD/eC6q+Nea8DiytMowPm8ZrLr2Lkk9FDz5QIILkknxyw07KMdia/ObHG
lOSacjX80C3u9M/WDRTYRy/AtuNhJ3pbkvf2Vl5sZRRN25z9sE5mQl+PlP20pfbs
IM+ObFkhik57+VNi00viZdXVWSWA5cgim7chw1EYHEYDohw=
-----END CERTIFICATE-----
