Certificate:
    Data:
        Version: 3 (0x2)
        Serial Number: 2 (0x2)
    Signature Algorithm: sha256WithRSAEncryption
        Issuer: CN=web-platform-tests
        Validity
            Not Before: May  6 19:30:22 2016 GMT
            Not After : Jun  5 19:30:22 2016 GMT
        Subject: CN=web-platform.test
        Subject Public Key Info:
            Public Key Algorithm: rsaEncryption
                Public-Key: (2048 bit)
                Modulus:
                    00:bf:29:41:99:a3:6b:06:35:05:16:35:ed:3d:67:
                    bc:c5:e0:2a:62:d1:9b:22:b7:71:da:6b:83:55:9c:
                    b8:8a:ef:b0:a6:b3:a5:98:f3:69:00:6e:4e:71:dc:
                    1f:7a:85:cb:79:e4:bd:b9:40:3b:f9:87:7b:ee:2c:
                    7e:a1:9b:29:2b:d0:f9:2e:94:4d:cd:1e:6c:c9:5c:
                    e3:fc:15:2a:92:12:ac:a6:63:d9:73:7b:ba:6c:5a:
                    24:45:42:6c:0a:d4:47:1c:32:87:40:68:a9:f3:54:
                    b9:07:17:19:30:d3:ef:65:ed:6d:9e:47:b4:34:a3:
                    39:e9:04:3b:aa:19:2b:6d:92:05:8f:65:24:3e:76:
                    5f:66:41:d7:94:20:81:33:b1:8a:29:8d:e9:36:2d:
                    ac:8c:7c:25:ba:c3:18:b4:ee:ca:e8:5e:fd:67:4a:
                    94:c4:96:30:89:44:5b:e6:5a:8b:3f:26:59:65:aa:
                    89:21:2e:1c:73:53:4f:f4:67:47:9d:5b:fa:bb:fb:
                    4f:07:0b:59:2f:68:f4:d4:03:89:8d:19:e5:3d:af:
                    20:51:58:55:81:d5:6d:73:69:31:99:f8:a1:aa:df:
                    d4:3e:89:01:a3:71:2e:1b:27:a4:16:ce:0a:a9:42:
                    21:1f:a3:40:1a:9f:56:f2:e9:af:5d:c0:62:d8:e5:
                    1d:87
                Exponent: 65537 (0x10001)
        X509v3 extensions:
            X509v3 Basic Constraints: 
                CA:FALSE
            X509v3 Subject Key Identifier: 
                48:3B:BA:E2:AE:B4:BE:06:8E:D4:4A:2B:AD:FE:17:E5:B4:0E:48:54
            X509v3 Authority Key Identifier: 
                keyid:D0:F2:71:26:30:36:78:73:F7:B6:7D:1D:95:58:2F:51:D3:34:F7:E3

            X509v3 Key Usage: 
                Digital Signature, Non Repudiation, Key Encipherment
            X509v3 Extended Key Usage: 
                TLS Web Server Authentication
            X509v3 Subject Alternative Name: 
                DNS:web-platform.test, DNS:www.web-platform.test, DNS:xn--n8j6ds53lwwkrqhv28a.web-platform.test, DNS:xn--lve-6lad.web-platform.test, DNS:www2.web-platform.test, DNS:www1.web-platform.test
    Signature Algorithm: sha256WithRSAEncryption
         a1:8b:d3:75:fc:4e:7f:d3:08:73:8d:6d:e3:17:b1:f6:b3:70:
         63:3d:99:51:e1:55:45:01:6d:3c:13:f7:de:0d:c2:3f:76:3f:
         c5:1c:51:bf:16:70:95:8a:79:4f:b3:fd:f7:e3:63:0c:cc:f2:
         20:88:9b:36:16:41:6d:3f:c2:8f:ce:94:d0:ce:26:cc:a4:ae:
         fb:0b:f5:dc:b9:91:af:1b:a5:e8:c6:6f:63:0d:51:90:e4:1e:
         21:ed:ab:51:78:40:9c:f2:12:76:11:bc:8b:3e:e4:1c:dd:d4:
         14:16:64:e1:db:63:28:28:15:3d:e8:07:be:07:69:a5:2f:81:
         83:ef:ac:40:d3:2d:1b:cf:f7:b4:39:46:36:0e:17:d4:7e:6e:
         f5:92:6a:8f:d5:b1:15:53:bd:04:82:e4:14:f8:ea:2c:37:8b:
         af:6b:76:ee:d7:4f:e3:8c:01:e8:f6:2b:9b:2b:fb:c7:e4:e6:
         23:95:fd:4e:9a:21:a7:da:7e:26:58:f5:cf:96:77:d8:24:b8:
         85:f0:2a:10:a1:ba:33:d2:3a:3c:61:7b:6f:24:04:85:1f:66:
         c8:b5:44:37:8f:99:55:54:b2:63:11:50:0e:1e:9c:82:02:6f:
         9d:48:b1:fc:70:19:02:d0:03:51:f3:0f:f2:9b:06:b2:44:e4:
         35:0c:31:97
-----BEGIN CERTIFICATE-----
MIID2jCCAsKgAwIBAgIBAjANBgkqhkiG9w0BAQsFADAdMRswGQYDVQQDDBJ3ZWIt
cGxhdGZvcm0tdGVzdHMwHhcNMTYwNTA2MTkzMDIyWhcNMTYwNjA1MTkzMDIyWjAc
MRowGAYDVQQDDBF3ZWItcGxhdGZvcm0udGVzdDCCASIwDQYJKoZIhvcNAQEBBQAD
ggEPADCCAQoCggEBAL8pQZmjawY1BRY17T1nvMXgKmLRmyK3cdprg1WcuIrvsKaz
pZjzaQBuTnHcH3qFy3nkvblAO/mHe+4sfqGbKSvQ+S6UTc0ebMlc4/wVKpISrKZj
2XN7umxaJEVCbArURxwyh0BoqfNUuQcXGTDT72XtbZ5HtDSjOekEO6oZK22SBY9l
JD52X2ZB15QggTOxiimN6TYtrIx8JbrDGLTuyuhe/WdKlMSWMIlEW+Zaiz8mWWWq
iSEuHHNTT/RnR51b+rv7TwcLWS9o9NQDiY0Z5T2vIFFYVYHVbXNpMZn4oarf1D6J
AaNxLhsnpBbOCqlCIR+jQBqfVvLpr13AYtjlHYcCAwEAAaOCASQwggEgMAkGA1Ud
EwQCMAAwHQYDVR0OBBYEFEg7uuKutL4GjtRKK63+F+W0DkhUMB8GA1UdIwQYMBaA
FNDycSYwNnhz97Z9HZVYL1HTNPfjMAsGA1UdDwQEAwIF4DATBgNVHSUEDDAKBggr
BgEFBQcDATCBsAYDVR0RBIGoMIGlghF3ZWItcGxhdGZvcm0udGVzdIIVd3d3Lndl
Yi1wbGF0Zm9ybS50ZXN0gil4bi0tbjhqNmRzNTNsd3drcnFodjI4YS53ZWItcGxh
dGZvcm0udGVzdIIeeG4tLWx2ZS02bGFkLndlYi1wbGF0Zm9ybS50ZXN0ghZ3d3cy
LndlYi1wbGF0Zm9ybS50ZXN0ghZ3d3cxLndlYi1wbGF0Zm9ybS50ZXN0MA0GCSqG
SIb3DQEBCwUAA4IBAQChi9N1/E5/0whzjW3jF7H2s3BjPZlR4VVFAW08E/feDcI/
dj/FHFG/FnCVinlPs/3342MMzPIgiJs2FkFtP8KPzpTQzibMpK77C/XcuZGvG6Xo
xm9jDVGQ5B4h7atReECc8hJ2EbyLPuQc3dQUFmTh22MoKBU96Ae+B2mlL4GD76xA
0y0bz/e0OUY2DhfUfm71kmqP1bEVU70EguQU+OosN4uva3bu10/jjAHo9iubK/vH
5OYjlf1OmiGn2n4mWPXPlnfYJLiF8CoQoboz0jo8YXtvJASFH2bItUQ3j5lVVLJj
EVAOHpyCAm+dSLH8cBkC0ANR8w/ymwayROQ1DDGX
-----END CERTIFICATE-----
