Certificate:
    Data:
        Version: 3 (0x2)
        Serial Number: 1 (0x1)
    Signature Algorithm: sha256WithRSAEncryption
        Issuer: CN=web-platform-tests
        Validity
            Not Before: Dec 22 12:09:15 2014 GMT
            Not After : Dec 21 12:09:15 2024 GMT
        Subject: CN=web-platform-tests
        Subject Public Key Info:
            Public Key Algorithm: rsaEncryption
                Public-Key: (2048 bit)
                Modulus:
                    00:c0:3e:c3:bd:b7:9e:2e:3e:ec:1f:a5:ae:9f:85:
                    8d:c0:59:a4:40:a8:fe:66:cf:ef:7d:1f:4a:91:52:
                    e6:55:0f:e5:69:b8:44:da:62:17:c7:88:28:ad:ec:
                    6d:b0:00:cd:a1:69:0e:e8:19:84:58:ad:e9:ce:31:
                    50:6c:a4:82:14:91:08:5a:a3:ae:c8:49:13:19:18:
                    7b:5b:2b:44:30:eb:bf:c7:7c:bb:d4:32:17:6a:4d:
                    eb:84:f1:65:9b:9d:21:3e:91:ae:74:75:b3:7c:b4:
                    cd:fa:98:73:d4:7c:d1:5d:1b:89:72:f7:d4:52:bd:
                    05:a3:c1:cf:b6:58:e7:51:ec:c2:71:c7:f6:0b:00:
                    97:58:f9:cb:c3:18:46:7b:55:0f:90:bf:da:a3:7d:
                    d6:c5:48:ea:b3:b5:a8:12:96:ac:38:65:10:b9:b1:
                    69:cb:4e:3b:4c:c3:83:74:33:63:b4:cc:fe:65:c1:
                    ad:12:51:f1:02:72:50:49:03:ab:a6:28:20:41:15:
                    ca:77:15:d9:85:55:69:9d:31:c1:db:12:be:46:db:
                    e6:d3:8f:2f:66:2d:9b:61:08:30:57:6c:d9:4f:b1:
                    6a:a8:e5:90:e3:e2:68:96:45:6e:3f:de:5e:13:fe:
                    8a:bd:f1:3f:7f:26:ec:3c:1a:80:b0:a8:ec:52:c5:
                    11:03
                Exponent: 65537 (0x10001)
        X509v3 extensions:
            X509v3 Basic Constraints: 
                CA:TRUE
            X509v3 Subject Key Identifier: 
                6A:AB:53:64:92:36:87:23:34:B3:1D:6F:85:4B:F5:DF:5A:5C:74:8F
            X509v3 Authority Key Identifier: 
                keyid:6A:AB:53:64:92:36:87:23:34:B3:1D:6F:85:4B:F5:DF:5A:5C:74:8F
                DirName:/CN=web-platform-tests
                serial:01

            X509v3 Key Usage: 
                Certificate Sign
            X509v3 Extended Key Usage: 
                TLS Web Server Authentication
    Signature Algorithm: sha256WithRSAEncryption
         46:af:02:04:97:2f:5b:00:11:c5:8f:c4:e1:2b:23:62:d1:61:
         4a:28:ed:82:82:57:d7:28:65:88:a5:61:16:20:37:02:90:16:
         0b:05:43:46:db:bd:3d:b4:4d:1c:6e:85:ff:5d:dc:0f:a4:a4:
         29:98:24:ae:39:ab:e4:97:a9:10:bc:a5:b9:4b:c1:2e:5a:ce:
         89:32:00:f1:fc:94:35:a6:71:c8:9c:d9:05:43:44:6c:68:62:
         ae:b1:71:20:17:5f:c4:fb:ae:05:e6:26:e5:41:88:cc:db:51:
         55:ed:85:a0:c9:e5:68:65:a7:fa:7a:db:8f:81:61:60:50:0b:
         16:b0:10:49:19:bb:70:0e:37:09:03:20:e8:a2:b9:e5:eb:c2:
         6a:7b:4f:60:cd:fb:22:0b:27:c6:0d:2d:e2:32:cc:28:de:c6:
         e2:14:6a:ad:3f:c4:6e:78:9d:71:24:9b:56:c4:54:28:e9:ec:
         09:6e:34:cc:6d:5c:bc:e6:68:96:44:ff:62:d0:54:a0:a4:37:
         d8:f7:9f:bc:bb:dc:ad:2c:49:e2:64:b9:4d:aa:e4:22:e6:df:
         3a:17:23:13:c1:aa:0e:94:27:46:5d:11:b9:0b:dc:3d:cf:93:
         20:eb:18:56:c5:ac:e3:92:eb:55:d3:cb:ce:e4:9c:21:85:d6:
         21:93:92:4f
-----BEGIN CERTIFICATE-----
MIIDTzCCAjegAwIBAgIBATANBgkqhkiG9w0BAQsFADAdMRswGQYDVQQDDBJ3ZWIt
cGxhdGZvcm0tdGVzdHMwHhcNMTQxMjIyMTIwOTE1WhcNMjQxMjIxMTIwOTE1WjAd
MRswGQYDVQQDDBJ3ZWItcGxhdGZvcm0tdGVzdHMwggEiMA0GCSqGSIb3DQEBAQUA
A4IBDwAwggEKAoIBAQDAPsO9t54uPuwfpa6fhY3AWaRAqP5mz+99H0qRUuZVD+Vp
uETaYhfHiCit7G2wAM2haQ7oGYRYrenOMVBspIIUkQhao67ISRMZGHtbK0Qw67/H
fLvUMhdqTeuE8WWbnSE+ka50dbN8tM36mHPUfNFdG4ly99RSvQWjwc+2WOdR7MJx
x/YLAJdY+cvDGEZ7VQ+Qv9qjfdbFSOqztagSlqw4ZRC5sWnLTjtMw4N0M2O0zP5l
wa0SUfECclBJA6umKCBBFcp3FdmFVWmdMcHbEr5G2+bTjy9mLZthCDBXbNlPsWqo
5ZDj4miWRW4/3l4T/oq98T9/Juw8GoCwqOxSxREDAgMBAAGjgZkwgZYwDAYDVR0T
BAUwAwEB/zAdBgNVHQ4EFgQUaqtTZJI2hyM0sx1vhUv131pcdI8wRQYDVR0jBD4w
PIAUaqtTZJI2hyM0sx1vhUv131pcdI+hIaQfMB0xGzAZBgNVBAMMEndlYi1wbGF0
Zm9ybS10ZXN0c4IBATALBgNVHQ8EBAMCAgQwEwYDVR0lBAwwCgYIKwYBBQUHAwEw
DQYJKoZIhvcNAQELBQADggEBAEavAgSXL1sAEcWPxOErI2LRYUoo7YKCV9coZYil
YRYgNwKQFgsFQ0bbvT20TRxuhf9d3A+kpCmYJK45q+SXqRC8pblLwS5azokyAPH8
lDWmccic2QVDRGxoYq6xcSAXX8T7rgXmJuVBiMzbUVXthaDJ5Whlp/p624+BYWBQ
CxawEEkZu3AONwkDIOiiueXrwmp7T2DN+yILJ8YNLeIyzCjexuIUaq0/xG54nXEk
m1bEVCjp7AluNMxtXLzmaJZE/2LQVKCkN9j3n7y73K0sSeJkuU2q5CLm3zoXIxPB
qg6UJ0ZdEbkL3D3PkyDrGFbFrOOS61XTy87knCGF1iGTkk8=
-----END CERTIFICATE-----
