Certificate:
    Data:
        Version: 3 (0x2)
        Serial Number: 753560 (0xb7f98)
    Signature Algorithm: sha256WithRSAEncryption
        Issuer: CN=web-platform-tests
        Validity
            Not Before: Jul 13 12:59:12 2018 GMT
            Not After : Jul 10 12:59:12 2028 GMT
        Subject: CN=web-platform-tests
        Subject Public Key Info:
            Public Key Algorithm: rsaEncryption
                Public-Key: (2048 bit)
                Modulus:
                    00:d3:94:10:b7:70:cf:1b:2b:1e:7f:6c:22:4f:15:
                    be:c9:95:03:45:e2:7c:26:78:d2:5b:3c:b5:3c:86:
                    ac:ab:ba:e9:c1:28:91:83:a7:28:92:26:79:00:c2:
                    bd:e6:ef:bb:6b:d7:fa:2e:39:fa:16:c8:e5:24:8e:
                    6e:e9:b1:15:83:ab:98:56:99:42:49:4d:5d:16:3a:
                    28:fe:4d:2e:29:1a:3c:78:78:09:aa:73:26:62:c2:
                    a5:2c:48:92:65:12:70:7e:3f:7e:c7:c4:ea:0a:c8:
                    60:ef:6a:b0:65:dc:da:10:31:c9:88:3a:56:35:fd:
                    85:bd:11:a4:51:7d:7f:71:5f:16:38:64:06:78:25:
                    3b:15:e1:a6:19:2f:7b:ff:92:11:ad:0e:60:1a:d4:
                    61:8e:46:45:00:9b:7b:c6:1f:5b:0e:bb:9d:6c:fd:
                    7a:29:96:82:25:3d:d5:19:80:b7:30:6e:61:2a:1f:
                    cb:50:dc:ac:f4:ff:4b:02:67:60:58:04:17:b6:69:
                    93:93:c8:92:f8:a0:5e:f1:56:fd:e8:24:21:bd:f4:
                    be:d4:ee:1f:df:6e:d3:4d:55:1b:58:c4:66:9b:93:
                    b6:b2:10:e8:0e:fb:6b:90:4f:f9:5f:99:58:0a:aa:
                    8d:5f:39:33:75:83:41:45:71:53:0b:f0:81:75:dc:
                    73:6d
                Exponent: 65537 (0x10001)
        X509v3 extensions:
            X509v3 Basic Constraints: 
                CA:TRUE
            X509v3 Subject Key Identifier: 
                5B:DA:C8:C1:09:F3:4D:92:30:BC:EF:43:FB:26:93:1E:AE:0D:9A:0F
            X509v3 Authority Key Identifier: 
                keyid:5B:DA:C8:C1:09:F3:4D:92:30:BC:EF:43:FB:26:93:1E:AE:0D:9A:0F
                DirName:/CN=web-platform-tests
                serial:0B:7F:98

            X509v3 Key Usage: 
                Certificate Sign
            X509v3 Extended Key Usage: 
                TLS Web Server Authentication
    Signature Algorithm: sha256WithRSAEncryption
         97:e3:f0:b9:63:07:e5:de:d9:1f:7f:de:be:f8:e4:98:d6:25:
         97:e9:d3:ad:7c:6d:30:7d:0d:8e:c5:9b:ef:eb:a8:c5:59:b2:
         2c:73:08:46:22:ab:f7:61:01:19:9e:00:0c:72:bc:2a:bd:86:
         11:1f:3d:80:aa:19:58:6f:cd:05:b6:5a:27:ff:2e:39:1a:44:
         08:a2:e8:a6:e2:2c:03:52:2f:63:6b:3a:3b:93:c6:b8:53:cd:
         f4:ec:63:5c:24:5a:65:a4:e3:93:9e:96:f0:00:cf:82:fc:dc:
         28:18:86:f1:a2:7e:78:80:9f:f4:11:b1:8e:c8:10:b5:18:9d:
         fd:9e:8a:cb:6d:8e:15:22:3b:1f:0d:79:53:bd:2b:f7:d0:09:
         2a:a6:a9:f1:3e:4c:d0:aa:81:ae:2b:34:b0:52:16:d0:78:e2:
         25:c1:e2:92:47:1b:2f:a6:a2:29:6f:87:9a:3c:5d:44:b0:8f:
         95:3c:e7:ad:d1:83:1c:38:b7:3d:85:2b:b8:dc:45:81:ba:71:
         a7:1c:96:9b:c1:38:3e:a9:a6:c7:38:71:4d:37:6e:ca:b8:e8:
         ab:cc:07:4e:21:43:88:21:c0:49:11:9e:d6:c4:13:2c:57:75:
         1d:8e:54:1f:63:9a:46:19:52:40:c5:1e:2c:38:d2:b8:62:43:
         a5:84:c8:e4
-----BEGIN CERTIFICATE-----
MIIDUzCCAjugAwIBAgIDC3+YMA0GCSqGSIb3DQEBCwUAMB0xGzAZBgNVBAMMEndl
Yi1wbGF0Zm9ybS10ZXN0czAeFw0xODA3MTMxMjU5MTJaFw0yODA3MTAxMjU5MTJa
MB0xGzAZBgNVBAMMEndlYi1wbGF0Zm9ybS10ZXN0czCCASIwDQYJKoZIhvcNAQEB
BQADggEPADCCAQoCggEBANOUELdwzxsrHn9sIk8VvsmVA0XifCZ40ls8tTyGrKu6
6cEokYOnKJImeQDCvebvu2vX+i45+hbI5SSObumxFYOrmFaZQklNXRY6KP5NLika
PHh4CapzJmLCpSxIkmUScH4/fsfE6grIYO9qsGXc2hAxyYg6VjX9hb0RpFF9f3Ff
FjhkBnglOxXhphkve/+SEa0OYBrUYY5GRQCbe8YfWw67nWz9eimWgiU91RmAtzBu
YSofy1DcrPT/SwJnYFgEF7Zpk5PIkvigXvFW/egkIb30vtTuH99u001VG1jEZpuT
trIQ6A77a5BP+V+ZWAqqjV85M3WDQUVxUwvwgXXcc20CAwEAAaOBmzCBmDAMBgNV
HRMEBTADAQH/MB0GA1UdDgQWBBRb2sjBCfNNkjC870P7JpMerg2aDzBHBgNVHSME
QDA+gBRb2sjBCfNNkjC870P7JpMerg2aD6EhpB8wHTEbMBkGA1UEAwwSd2ViLXBs
YXRmb3JtLXRlc3RzggMLf5gwCwYDVR0PBAQDAgIEMBMGA1UdJQQMMAoGCCsGAQUF
BwMBMA0GCSqGSIb3DQEBCwUAA4IBAQCX4/C5Ywfl3tkff96++OSY1iWX6dOtfG0w
fQ2OxZvv66jFWbIscwhGIqv3YQEZngAMcrwqvYYRHz2AqhlYb80Ftlon/y45GkQI
ouim4iwDUi9jazo7k8a4U8307GNcJFplpOOTnpbwAM+C/NwoGIbxon54gJ/0EbGO
yBC1GJ39norLbY4VIjsfDXlTvSv30AkqpqnxPkzQqoGuKzSwUhbQeOIlweKSRxsv
pqIpb4eaPF1EsI+VPOet0YMcOLc9hSu43EWBunGnHJabwTg+qabHOHFNN27KuOir
zAdOIUOIIcBJEZ7WxBMsV3UdjlQfY5pGGVJAxR4sONK4YkOlhMjk
-----END CERTIFICATE-----
