Certificate:
    Data:
        Version: 3 (0x2)
        Serial Number: 372738 (0x5b002)
    Signature Algorithm: sha256WithRSAEncryption
        Issuer: CN=web-platform-tests
        Validity
            Not Before: Dec 20 12:20:35 2018 GMT
            Not After : Dec 17 12:20:35 2028 GMT
        Subject: CN=web-platform-tests
        Subject Public Key Info:
            Public Key Algorithm: rsaEncryption
                Public-Key: (2048 bit)
                Modulus:
                    00:a5:c0:b9:6d:f2:13:01:17:f3:ec:bf:91:db:4f:
                    cd:4a:73:c7:d1:6a:b8:0d:c0:1e:7a:06:df:f2:f6:
                    08:c1:36:a2:11:da:fb:0a:7a:2a:4f:a9:c0:6f:19:
                    0b:e2:6d:26:3a:f9:3e:71:29:45:a4:4f:27:1d:6d:
                    ef:40:98:dc:01:7f:2c:4f:e2:35:4d:2b:8e:97:c5:
                    41:9e:cd:f4:0e:60:fc:65:a4:39:5c:88:36:05:60:
                    e8:7f:b4:b4:32:9c:70:47:08:15:51:c8:cb:d8:21:
                    ba:54:48:73:72:e3:8a:95:61:e6:00:ef:e3:5f:f6:
                    18:b6:4e:24:b5:41:7f:ce:b2:d7:28:33:ee:06:21:
                    4f:cb:d6:4f:55:3a:bb:4f:74:e9:b6:e8:3b:cc:a7:
                    bb:f3:86:7a:c8:71:e1:f4:f2:2b:fe:1f:71:5e:1f:
                    49:12:f9:c3:8a:7e:dc:5f:75:38:4d:7b:4a:a2:e5:
                    6e:bf:ce:d9:9c:99:af:a7:6e:38:97:3c:b5:3f:13:
                    0c:63:7e:78:ee:e4:ad:d8:18:c7:ec:da:38:44:49:
                    af:fb:44:8d:79:29:db:cf:4c:0a:6a:fd:5a:54:15:
                    e0:cd:ac:4d:17:5d:ef:58:c8:3d:84:fd:20:79:55:
                    9f:14:c7:c8:5f:c8:98:5c:3c:ff:53:89:c5:1f:e7:
                    83:a3
                Exponent: 65537 (0x10001)
        X509v3 extensions:
            X509v3 Basic Constraints: 
                CA:TRUE
            X509v3 Subject Key Identifier: 
                7A:EA:6A:75:AA:23:78:B5:5E:06:61:4A:56:CF:56:A9:6D:B0:54:02
            X509v3 Authority Key Identifier: 
                keyid:7A:EA:6A:75:AA:23:78:B5:5E:06:61:4A:56:CF:56:A9:6D:B0:54:02
                DirName:/CN=web-platform-tests
                serial:05:B0:02

            X509v3 Key Usage: 
                Certificate Sign
            X509v3 Name Constraints: 
                Permitted:
                  DNS:web-platform.test
                  DNS:not-web-platform.test
                  DNS:www.web-platform.test
                  DNS:www1.web-platform.test
                  DNS:www2.web-platform.test
                  DNS:www.not-web-platform.test
                  DNS:www2.not-web-platform.test
                  DNS:www1.not-web-platform.test
                  DNS:xn--lve-6lad.web-platform.test
                  DNS:xn--lve-6lad.not-web-platform.test
                  DNS:xn--n8j6ds53lwwkrqhv28a.web-platform.test
                  DNS:xn--n8j6ds53lwwkrqhv28a.not-web-platform.test

            X509v3 Extended Key Usage: 
                TLS Web Server Authentication
            X509v3 Subject Alternative Name: 
                DNS:web-platform.test, DNS:not-web-platform.test, DNS:www.web-platform.test, DNS:www1.web-platform.test, DNS:www2.web-platform.test, DNS:www.not-web-platform.test, DNS:www2.not-web-platform.test, DNS:www1.not-web-platform.test, DNS:xn--lve-6lad.web-platform.test, DNS:xn--lve-6lad.not-web-platform.test, DNS:xn--n8j6ds53lwwkrqhv28a.web-platform.test, DNS:xn--n8j6ds53lwwkrqhv28a.not-web-platform.test
    Signature Algorithm: sha256WithRSAEncryption
         57:8e:97:2b:a5:3f:82:be:c9:80:b3:ef:0f:c8:b9:4c:f2:a6:
         91:40:ab:1f:70:0e:31:fb:74:ae:17:23:ea:b1:c8:19:f7:29:
         13:da:59:aa:61:7f:24:17:24:84:22:81:4c:23:b1:e6:a8:d8:
         65:95:b0:a9:2e:2d:b8:8f:86:67:69:b8:d2:7a:87:d3:75:67:
         6a:24:2a:a9:af:31:a6:33:2a:50:46:c4:2e:37:f0:e0:e0:a1:
         e0:fe:bb:2f:6a:8d:9c:a6:45:cd:3f:8f:cd:fd:95:b1:70:24:
         b8:2b:39:56:3f:81:0d:42:59:0a:8e:b2:c4:a7:1b:8a:73:98:
         51:4d:f5:14:ab:8b:95:dc:5e:6a:bc:30:57:79:16:3e:6c:73:
         09:f9:be:1b:4b:bf:cb:f4:ae:3a:ad:0e:57:20:e7:2f:f5:1f:
         b3:7b:cf:1a:77:73:94:c6:f5:08:d5:24:29:12:9c:f1:0a:75:
         99:43:7b:91:c7:69:6f:ff:86:10:54:94:22:73:f9:00:c2:91:
         3d:6d:52:e5:5a:c6:43:e2:37:84:4c:59:02:b7:59:6c:b0:c5:
         18:72:03:61:94:00:11:e6:a3:cb:18:99:3e:8e:a2:00:82:4a:
         65:c3:08:3b:c9:10:19:c3:09:44:3c:a9:b0:2a:c3:84:2c:46:
         43:ba:dc:bf
-----BEGIN CERTIFICATE-----
MIIGVzCCBT+gAwIBAgIDBbACMA0GCSqGSIb3DQEBCwUAMB0xGzAZBgNVBAMMEndl
Yi1wbGF0Zm9ybS10ZXN0czAeFw0xODEyMjAxMjIwMzVaFw0yODEyMTcxMjIwMzVa
MB0xGzAZBgNVBAMMEndlYi1wbGF0Zm9ybS10ZXN0czCCASIwDQYJKoZIhvcNAQEB
BQADggEPADCCAQoCggEBAKXAuW3yEwEX8+y/kdtPzUpzx9FquA3AHnoG3/L2CME2
ohHa+wp6Kk+pwG8ZC+JtJjr5PnEpRaRPJx1t70CY3AF/LE/iNU0rjpfFQZ7N9A5g
/GWkOVyINgVg6H+0tDKccEcIFVHIy9ghulRIc3LjipVh5gDv41/2GLZOJLVBf86y
1ygz7gYhT8vWT1U6u0906bboO8ynu/OGeshx4fTyK/4fcV4fSRL5w4p+3F91OE17
SqLlbr/O2ZyZr6duOJc8tT8TDGN+eO7krdgYx+zaOERJr/tEjXkp289MCmr9WlQV
4M2sTRdd71jIPYT9IHlVnxTHyF/ImFw8/1OJxR/ng6MCAwEAAaOCA54wggOaMAwG
A1UdEwQFMAMBAf8wHQYDVR0OBBYEFHrqanWqI3i1XgZhSlbPVqltsFQCMEcGA1Ud
IwRAMD6AFHrqanWqI3i1XgZhSlbPVqltsFQCoSGkHzAdMRswGQYDVQQDDBJ3ZWIt
cGxhdGZvcm0tdGVzdHOCAwWwAjALBgNVHQ8EBAMCAgQwggGLBgNVHR4EggGCMIIB
fqCCAXowE4IRd2ViLXBsYXRmb3JtLnRlc3QwF4IVbm90LXdlYi1wbGF0Zm9ybS50
ZXN0MBeCFXd3dy53ZWItcGxhdGZvcm0udGVzdDAYghZ3d3cxLndlYi1wbGF0Zm9y
bS50ZXN0MBiCFnd3dzIud2ViLXBsYXRmb3JtLnRlc3QwG4IZd3d3Lm5vdC13ZWIt
cGxhdGZvcm0udGVzdDAcghp3d3cyLm5vdC13ZWItcGxhdGZvcm0udGVzdDAcghp3
d3cxLm5vdC13ZWItcGxhdGZvcm0udGVzdDAggh54bi0tbHZlLTZsYWQud2ViLXBs
YXRmb3JtLnRlc3QwJIIieG4tLWx2ZS02bGFkLm5vdC13ZWItcGxhdGZvcm0udGVz
dDArgil4bi0tbjhqNmRzNTNsd3drcnFodjI4YS53ZWItcGxhdGZvcm0udGVzdDAv
gi14bi0tbjhqNmRzNTNsd3drcnFodjI4YS5ub3Qtd2ViLXBsYXRmb3JtLnRlc3Qw
EwYDVR0lBAwwCgYIKwYBBQUHAwEwggFvBgNVHREEggFmMIIBYoIRd2ViLXBsYXRm
b3JtLnRlc3SCFW5vdC13ZWItcGxhdGZvcm0udGVzdIIVd3d3LndlYi1wbGF0Zm9y
bS50ZXN0ghZ3d3cxLndlYi1wbGF0Zm9ybS50ZXN0ghZ3d3cyLndlYi1wbGF0Zm9y
bS50ZXN0ghl3d3cubm90LXdlYi1wbGF0Zm9ybS50ZXN0ghp3d3cyLm5vdC13ZWIt
cGxhdGZvcm0udGVzdIIad3d3MS5ub3Qtd2ViLXBsYXRmb3JtLnRlc3SCHnhuLS1s
dmUtNmxhZC53ZWItcGxhdGZvcm0udGVzdIIieG4tLWx2ZS02bGFkLm5vdC13ZWIt
cGxhdGZvcm0udGVzdIIpeG4tLW44ajZkczUzbHd3a3JxaHYyOGEud2ViLXBsYXRm
b3JtLnRlc3SCLXhuLS1uOGo2ZHM1M2x3d2tycWh2MjhhLm5vdC13ZWItcGxhdGZv
cm0udGVzdDANBgkqhkiG9w0BAQsFAAOCAQEAV46XK6U/gr7JgLPvD8i5TPKmkUCr
H3AOMft0rhcj6rHIGfcpE9pZqmF/JBckhCKBTCOx5qjYZZWwqS4tuI+GZ2m40nqH
03VnaiQqqa8xpjMqUEbELjfw4OCh4P67L2qNnKZFzT+Pzf2VsXAkuCs5Vj+BDUJZ
Co6yxKcbinOYUU31FKuLldxearwwV3kWPmxzCfm+G0u/y/SuOq0OVyDnL/Ufs3vP
GndzlMb1CNUkKRKc8Qp1mUN7kcdpb/+GEFSUInP5AMKRPW1S5VrGQ+I3hExZArdZ
bLDFGHIDYZQAEeajyxiZPo6iAIJKZcMIO8kQGcMJRDypsCrDhCxGQ7rcvw==
-----END CERTIFICATE-----
