Certificate:
    Data:
        Version: 3 (0x2)
        Serial Number: 372739 (0x5b003)
    Signature Algorithm: sha256WithRSAEncryption
        Issuer: CN=web-platform-tests
        Validity
            Not Before: Dec 20 12:20:36 2018 GMT
            Not After : Dec 17 12:20:36 2028 GMT
        Subject: CN=web-platform.test
        Subject Public Key Info:
            Public Key Algorithm: rsaEncryption
                Public-Key: (2048 bit)
                Modulus:
                    00:a9:c4:56:43:9e:78:e0:1a:b3:e3:d8:e8:ab:b6:
                    1a:0c:ae:10:d7:86:04:34:32:ea:44:95:c2:06:dd:
                    9b:44:f4:f3:40:a9:3d:b4:62:ca:fb:71:88:20:d6:
                    f4:1d:ca:54:a8:d5:a2:b7:65:c0:5b:b5:fb:90:f1:
                    87:da:ef:ea:3a:4e:24:dc:2a:21:26:4d:60:77:e2:
                    b2:4f:c7:5b:77:ee:b2:73:ee:75:82:d0:98:c8:38:
                    0a:ed:a5:22:00:23:cc:88:5e:40:2d:c3:94:e7:1d:
                    c2:f9:00:00:bb:6a:59:62:54:cc:85:d7:95:15:c5:
                    d7:93:52:09:af:c3:92:14:1b:37:d1:5f:d1:d4:56:
                    10:85:bf:1b:6c:4b:e1:93:3a:80:cb:1c:5a:98:18:
                    7e:10:73:ab:20:74:e1:2d:cd:43:ee:45:2e:75:cc:
                    a4:f0:68:6e:10:a2:90:8a:7e:4b:e3:dc:c2:d9:d7:
                    df:e4:d1:a2:4f:89:bb:cb:34:00:a9:90:c9:4f:15:
                    86:59:7a:4b:ed:f9:6b:01:01:48:ed:8b:15:cc:f1:
                    ff:58:a2:7d:97:57:d1:7b:31:7b:c3:b1:a6:54:81:
                    e6:ee:62:de:ea:c5:a1:b4:c4:63:5e:cf:ca:e2:2c:
                    88:50:07:cc:06:48:82:75:f1:98:b2:54:de:b6:ab:
                    df:db
                Exponent: 65537 (0x10001)
        X509v3 extensions:
            X509v3 Basic Constraints: 
                CA:FALSE
            X509v3 Subject Key Identifier: 
                F7:EE:CA:20:37:0F:BC:CF:F3:B7:DC:12:76:D1:D1:CA:40:67:3A:6D
            X509v3 Authority Key Identifier: 
                keyid:7A:EA:6A:75:AA:23:78:B5:5E:06:61:4A:56:CF:56:A9:6D:B0:54:02

            X509v3 Key Usage: 
                Digital Signature, Non Repudiation, Key Encipherment
            X509v3 Extended Key Usage: 
                TLS Web Server Authentication
            X509v3 Subject Alternative Name: 
                DNS:web-platform.test, DNS:not-web-platform.test, DNS:www.web-platform.test, DNS:www1.web-platform.test, DNS:www2.web-platform.test, DNS:www.not-web-platform.test, DNS:www2.not-web-platform.test, DNS:www1.not-web-platform.test, DNS:xn--lve-6lad.web-platform.test, DNS:xn--lve-6lad.not-web-platform.test, DNS:xn--n8j6ds53lwwkrqhv28a.web-platform.test, DNS:xn--n8j6ds53lwwkrqhv28a.not-web-platform.test
    Signature Algorithm: sha256WithRSAEncryption
         63:c9:58:a8:38:b5:1f:2d:41:9f:06:a3:50:bc:a4:da:f5:e9:
         c6:05:64:0e:d6:7e:ee:31:8d:81:00:c1:90:fd:71:4d:3c:92:
         44:7f:c5:b6:be:fe:8d:c0:85:90:04:5c:20:08:88:47:8c:b6:
         0d:b4:1f:22:a8:10:a9:e7:0d:9d:a0:79:44:0b:f3:3a:77:e6:
         e2:89:f9:a4:ee:dc:e9:6c:6c:2c:1c:6f:c6:fb:e3:2c:36:a3:
         72:89:4e:c2:9c:51:23:cc:af:2f:9d:67:82:d2:59:ea:ff:fd:
         ef:7c:bc:c8:ff:a7:19:43:64:e6:5f:82:28:c9:de:8e:97:e6:
         42:e0:ca:74:e6:c8:e0:d3:6a:bc:04:ca:bb:53:f0:64:b1:31:
         98:af:e1:b8:6b:7d:0c:ad:b3:e0:29:00:1b:50:af:30:b3:fa:
         d4:d3:0e:45:4b:12:0d:5a:ea:11:cd:29:be:32:ea:4f:4f:7c:
         58:7d:e2:33:37:b9:ce:0f:94:00:6d:16:e4:91:6f:e6:4c:47:
         a7:cd:b7:f1:ab:86:68:e2:6e:c5:e9:60:b7:24:b1:aa:1b:f6:
         f5:ce:a4:03:bf:ed:20:92:a9:f7:ad:57:61:ef:d8:9a:b6:df:
         cb:2f:4d:3b:ab:8f:71:c4:f2:87:93:25:48:89:c5:9c:c8:d8:
         46:c5:5e:ac
-----BEGIN CERTIFICATE-----
MIIEnDCCA4SgAwIBAgIDBbADMA0GCSqGSIb3DQEBCwUAMB0xGzAZBgNVBAMMEndl
Yi1wbGF0Zm9ybS10ZXN0czAeFw0xODEyMjAxMjIwMzZaFw0yODEyMTcxMjIwMzZa
MBwxGjAYBgNVBAMMEXdlYi1wbGF0Zm9ybS50ZXN0MIIBIjANBgkqhkiG9w0BAQEF
AAOCAQ8AMIIBCgKCAQEAqcRWQ5544Bqz49joq7YaDK4Q14YENDLqRJXCBt2bRPTz
QKk9tGLK+3GIINb0HcpUqNWit2XAW7X7kPGH2u/qOk4k3CohJk1gd+KyT8dbd+6y
c+51gtCYyDgK7aUiACPMiF5ALcOU5x3C+QAAu2pZYlTMhdeVFcXXk1IJr8OSFBs3
0V/R1FYQhb8bbEvhkzqAyxxamBh+EHOrIHThLc1D7kUudcyk8GhuEKKQin5L49zC
2dff5NGiT4m7yzQAqZDJTxWGWXpL7flrAQFI7YsVzPH/WKJ9l1fRezF7w7GmVIHm
7mLe6sWhtMRjXs/K4iyIUAfMBkiCdfGYslTetqvf2wIDAQABo4IB5DCCAeAwCQYD
VR0TBAIwADAdBgNVHQ4EFgQU9+7KIDcPvM/zt9wSdtHRykBnOm0wHwYDVR0jBBgw
FoAUeupqdaojeLVeBmFKVs9WqW2wVAIwCwYDVR0PBAQDAgXgMBMGA1UdJQQMMAoG
CCsGAQUFBwMBMIIBbwYDVR0RBIIBZjCCAWKCEXdlYi1wbGF0Zm9ybS50ZXN0ghVu
b3Qtd2ViLXBsYXRmb3JtLnRlc3SCFXd3dy53ZWItcGxhdGZvcm0udGVzdIIWd3d3
MS53ZWItcGxhdGZvcm0udGVzdIIWd3d3Mi53ZWItcGxhdGZvcm0udGVzdIIZd3d3
Lm5vdC13ZWItcGxhdGZvcm0udGVzdIIad3d3Mi5ub3Qtd2ViLXBsYXRmb3JtLnRl
c3SCGnd3dzEubm90LXdlYi1wbGF0Zm9ybS50ZXN0gh54bi0tbHZlLTZsYWQud2Vi
LXBsYXRmb3JtLnRlc3SCInhuLS1sdmUtNmxhZC5ub3Qtd2ViLXBsYXRmb3JtLnRl
c3SCKXhuLS1uOGo2ZHM1M2x3d2tycWh2MjhhLndlYi1wbGF0Zm9ybS50ZXN0gi14
bi0tbjhqNmRzNTNsd3drcnFodjI4YS5ub3Qtd2ViLXBsYXRmb3JtLnRlc3QwDQYJ
KoZIhvcNAQELBQADggEBAGPJWKg4tR8tQZ8Go1C8pNr16cYFZA7Wfu4xjYEAwZD9
cU08kkR/xba+/o3AhZAEXCAIiEeMtg20HyKoEKnnDZ2geUQL8zp35uKJ+aTu3Ols
bCwcb8b74yw2o3KJTsKcUSPMry+dZ4LSWer//e98vMj/pxlDZOZfgijJ3o6X5kLg
ynTmyODTarwEyrtT8GSxMZiv4bhrfQyts+ApABtQrzCz+tTTDkVLEg1a6hHNKb4y
6k9PfFh94jM3uc4PlABtFuSRb+ZMR6fNt/GrhmjibsXpYLcksaob9vXOpAO/7SCS
qfetV2Hv2Jq238svTTurj3HE8oeTJUiJxZzI2EbFXqw=
-----END CERTIFICATE-----
