Certificate:
    Data:
        Version: 3 (0x2)
        Serial Number: 753561 (0xb7f99)
    Signature Algorithm: sha256WithRSAEncryption
        Issuer: CN=web-platform-tests
        Validity
            Not Before: Jul 13 12:59:12 2018 GMT
            Not After : Jul 10 12:59:12 2028 GMT
        Subject: CN=web-platform.test
        Subject Public Key Info:
            Public Key Algorithm: rsaEncryption
                Public-Key: (2048 bit)
                Modulus:
                    00:d8:53:68:3b:55:d2:8e:55:3c:4f:b8:80:74:b8:
                    1d:49:8c:3c:d2:b5:b5:15:22:37:81:25:42:e7:58:
                    aa:b6:aa:be:0e:30:8e:a0:97:4f:f7:80:d9:e9:a1:
                    f4:eb:58:3f:a3:96:28:b8:da:5a:aa:0d:41:df:6c:
                    1d:52:ae:cd:c8:16:02:b0:0a:70:91:57:7e:a5:db:
                    10:a4:fd:3b:f7:06:d5:b5:89:6a:92:36:c6:66:c5:
                    a6:d2:6c:76:f5:4f:4a:cb:6e:c3:93:2d:be:d2:3f:
                    bd:14:a7:4a:39:5a:f0:18:dc:41:1b:70:80:65:81:
                    85:45:a3:aa:19:f0:fe:55:ed:10:d9:56:6c:8d:54:
                    69:4b:de:45:01:0f:50:a1:87:d7:0c:43:22:9d:1b:
                    4e:b2:ec:6e:76:e3:ac:f6:c1:d9:b0:69:e8:30:1a:
                    bb:3d:d3:9d:e3:8c:70:41:77:22:02:5c:b1:33:2b:
                    82:de:da:b8:18:f4:d2:98:1a:6a:f0:a0:24:56:a8:
                    0a:e9:0c:22:cf:38:6c:43:9a:26:f6:85:d9:b5:1f:
                    6d:e4:cf:ed:39:23:53:db:a3:8e:7e:26:eb:61:1b:
                    4e:5d:ac:b0:42:be:1e:5c:4e:18:80:63:6c:0d:09:
                    68:08:06:a1:f4:04:0b:c3:37:92:e8:aa:0e:c5:d1:
                    4b:c1
                Exponent: 65537 (0x10001)
        X509v3 extensions:
            X509v3 Basic Constraints: 
                CA:FALSE
            X509v3 Subject Key Identifier: 
                DC:27:6C:74:E6:47:31:95:D8:CC:96:5B:E4:94:6E:8C:22:2F:2B:EA
            X509v3 Authority Key Identifier: 
                keyid:5B:DA:C8:C1:09:F3:4D:92:30:BC:EF:43:FB:26:93:1E:AE:0D:9A:0F

            X509v3 Key Usage: 
                Digital Signature, Non Repudiation, Key Encipherment
            X509v3 Extended Key Usage: 
                TLS Web Server Authentication
            X509v3 Subject Alternative Name: 
                DNS:web-platform.test, DNS:not-web-platform.test, DNS:www.web-platform.test, DNS:www1.web-platform.test, DNS:www2.web-platform.test, DNS:www.not-web-platform.test, DNS:www2.not-web-platform.test, DNS:www1.not-web-platform.test, DNS:xn--lve-6lad.web-platform.test, DNS:xn--lve-6lad.not-web-platform.test, DNS:xn--n8j6ds53lwwkrqhv28a.web-platform.test, DNS:xn--n8j6ds53lwwkrqhv28a.not-web-platform.test
    Signature Algorithm: sha256WithRSAEncryption
         15:98:68:69:25:f6:f7:d6:09:0b:5b:d6:ac:d6:49:06:0e:24:
         e1:ee:b9:44:9e:d1:03:03:ed:3a:b3:f9:23:c4:14:e8:fe:53:
         70:70:21:a6:d4:e3:ee:8d:ba:84:38:cd:71:32:c7:4a:c0:f1:
         33:eb:bd:bc:ed:f2:d8:dc:c3:a7:a7:a6:47:6a:69:6c:16:ea:
         e6:4d:7c:77:18:0d:3e:86:29:91:2b:49:d5:c9:19:1a:53:16:
         a7:f0:02:f4:70:a2:e5:8b:bc:aa:a6:6f:4f:5b:40:24:04:68:
         11:9d:9e:26:20:f2:e3:68:36:9a:fa:8f:7c:b0:29:08:37:c4:
         06:08:fc:e4:45:bb:4c:78:ae:2c:f1:c1:bf:d9:23:17:e5:43:
         18:0e:06:d8:4c:b4:2a:ef:f9:7c:bf:02:d2:62:51:82:ed:9d:
         64:83:3d:03:cd:61:38:c0:57:c6:5e:5b:3a:41:91:db:3e:83:
         05:4b:88:84:e3:ae:be:4d:5d:f9:59:07:0c:21:16:fa:7e:af:
         23:97:05:25:4c:bb:02:d3:11:4a:85:68:c3:a3:cf:d0:0c:15:
         49:f6:32:0b:f6:2a:01:91:3c:ad:c7:31:da:da:43:e2:2c:db:
         52:c5:37:a0:c3:cc:3a:5b:2b:76:e5:74:74:20:1b:c3:f7:0c:
         fe:6d:bf:bb
-----BEGIN CERTIFICATE-----
MIIEnDCCA4SgAwIBAgIDC3+ZMA0GCSqGSIb3DQEBCwUAMB0xGzAZBgNVBAMMEndl
Yi1wbGF0Zm9ybS10ZXN0czAeFw0xODA3MTMxMjU5MTJaFw0yODA3MTAxMjU5MTJa
MBwxGjAYBgNVBAMMEXdlYi1wbGF0Zm9ybS50ZXN0MIIBIjANBgkqhkiG9w0BAQEF
AAOCAQ8AMIIBCgKCAQEA2FNoO1XSjlU8T7iAdLgdSYw80rW1FSI3gSVC51iqtqq+
DjCOoJdP94DZ6aH061g/o5YouNpaqg1B32wdUq7NyBYCsApwkVd+pdsQpP079wbV
tYlqkjbGZsWm0mx29U9Ky27Dky2+0j+9FKdKOVrwGNxBG3CAZYGFRaOqGfD+Ve0Q
2VZsjVRpS95FAQ9QoYfXDEMinRtOsuxuduOs9sHZsGnoMBq7PdOd44xwQXciAlyx
MyuC3tq4GPTSmBpq8KAkVqgK6QwizzhsQ5om9oXZtR9t5M/tOSNT26OOfibrYRtO
XaywQr4eXE4YgGNsDQloCAah9AQLwzeS6KoOxdFLwQIDAQABo4IB5DCCAeAwCQYD
VR0TBAIwADAdBgNVHQ4EFgQU3CdsdOZHMZXYzJZb5JRujCIvK+owHwYDVR0jBBgw
FoAUW9rIwQnzTZIwvO9D+yaTHq4Nmg8wCwYDVR0PBAQDAgXgMBMGA1UdJQQMMAoG
CCsGAQUFBwMBMIIBbwYDVR0RBIIBZjCCAWKCEXdlYi1wbGF0Zm9ybS50ZXN0ghVu
b3Qtd2ViLXBsYXRmb3JtLnRlc3SCFXd3dy53ZWItcGxhdGZvcm0udGVzdIIWd3d3
MS53ZWItcGxhdGZvcm0udGVzdIIWd3d3Mi53ZWItcGxhdGZvcm0udGVzdIIZd3d3
Lm5vdC13ZWItcGxhdGZvcm0udGVzdIIad3d3Mi5ub3Qtd2ViLXBsYXRmb3JtLnRl
c3SCGnd3dzEubm90LXdlYi1wbGF0Zm9ybS50ZXN0gh54bi0tbHZlLTZsYWQud2Vi
LXBsYXRmb3JtLnRlc3SCInhuLS1sdmUtNmxhZC5ub3Qtd2ViLXBsYXRmb3JtLnRl
c3SCKXhuLS1uOGo2ZHM1M2x3d2tycWh2MjhhLndlYi1wbGF0Zm9ybS50ZXN0gi14
bi0tbjhqNmRzNTNsd3drcnFodjI4YS5ub3Qtd2ViLXBsYXRmb3JtLnRlc3QwDQYJ
KoZIhvcNAQELBQADggEBABWYaGkl9vfWCQtb1qzWSQYOJOHuuUSe0QMD7Tqz+SPE
FOj+U3BwIabU4+6NuoQ4zXEyx0rA8TPrvbzt8tjcw6enpkdqaWwW6uZNfHcYDT6G
KZErSdXJGRpTFqfwAvRwouWLvKqmb09bQCQEaBGdniYg8uNoNpr6j3ywKQg3xAYI
/ORFu0x4rizxwb/ZIxflQxgOBthMtCrv+Xy/AtJiUYLtnWSDPQPNYTjAV8ZeWzpB
kds+gwVLiITjrr5NXflZBwwhFvp+ryOXBSVMuwLTEUqFaMOjz9AMFUn2Mgv2KgGR
PK3HMdraQ+Is21LFN6DDzDpbK3bldHQgG8P3DP5tv7s=
-----END CERTIFICATE-----
