Certificate:
    Data:
        Version: 3 (0x2)
        Serial Number: 700764 (0xab15c)
        Signature Algorithm: sha256WithRSAEncryption
        Issuer: CN=web-platform-tests
        Validity
            Not Before: Jul 12 12:45:17 2022 GMT
            Not After : Jul 12 12:45:17 2023 GMT
        Subject: CN=web-platform.test
        Subject Public Key Info:
            Public Key Algorithm: rsaEncryption
                RSA Public-Key: (2048 bit)
                Modulus:
                    00:df:d4:35:97:27:10:56:77:5e:dd:22:87:c7:4e:
                    04:08:05:fb:2a:df:63:e2:6b:18:cd:ff:cf:60:36:
                    10:be:ac:1e:11:1f:08:67:09:7d:dc:ba:f2:cf:0c:
                    eb:ef:32:90:38:18:25:c0:5f:7a:58:78:34:95:38:
                    19:2c:eb:1b:99:37:1d:b9:05:04:ef:57:4c:9d:08:
                    38:5f:ed:85:64:91:16:5f:8f:5c:74:6d:13:e4:9f:
                    04:8d:0e:30:84:d0:d3:c7:e3:40:20:86:64:bf:87:
                    e4:df:19:4f:34:ad:00:c5:8e:2d:3f:15:aa:5c:b3:
                    09:8b:32:62:9c:07:d9:25:f9:db:ee:76:66:92:5a:
                    a0:a7:59:94:e9:4f:f9:32:2c:15:92:77:9f:a6:90:
                    0e:92:d5:ba:f6:95:04:88:13:a3:79:3b:da:1a:53:
                    58:c0:2b:51:3a:8d:0d:a5:77:70:c5:33:c2:48:35:
                    15:bd:7e:cc:7b:bb:93:8c:bb:68:1d:b3:ce:00:6c:
                    63:dc:d5:b3:ce:5b:d6:9d:80:5a:dc:c6:78:22:61:
                    d1:c6:67:48:6f:60:b8:bb:46:87:db:0f:73:91:d0:
                    24:e2:af:8b:71:35:dd:18:5d:ec:13:70:43:4a:05:
                    c0:5b:ee:2d:83:44:ff:49:f2:7b:b2:e5:85:21:c9:
                    c8:17
                Exponent: 65537 (0x10001)
        X509v3 extensions:
            X509v3 Basic Constraints: 
                CA:FALSE
            X509v3 Subject Key Identifier: 
                53:34:14:49:85:A6:DE:7F:A4:F6:2C:42:A9:1A:9C:F7:D9:20:50:C1
            X509v3 Authority Key Identifier: 
                keyid:CA:3C:92:E7:DC:50:39:0B:E5:44:3F:DF:6F:91:5C:E2:88:2A:3A:D6

            X509v3 Key Usage: 
                Digital Signature, Non Repudiation, Key Encipherment
            X509v3 Extended Key Usage: 
                TLS Web Server Authentication
            X509v3 Subject Alternative Name: 
                DNS:web-platform.test, DNS:www.web-platform.test, DNS:not-web-platform.test, DNS:www1.web-platform.test, DNS:www2.web-platform.test, DNS:www.www.web-platform.test, DNS:www.not-web-platform.test, DNS:www.www2.web-platform.test, DNS:www.www1.web-platform.test, DNS:www2.not-web-platform.test, DNS:www1.www.web-platform.test, DNS:www1.not-web-platform.test, DNS:www2.www.web-platform.test, DNS:www1.www1.web-platform.test, DNS:www2.www1.web-platform.test, DNS:www1.www2.web-platform.test, DNS:www2.www2.web-platform.test, DNS:www.www.not-web-platform.test, DNS:www2.www.not-web-platform.test, DNS:www.www1.not-web-platform.test, DNS:www1.www.not-web-platform.test, DNS:xn--lve-6lad.web-platform.test, DNS:www.www2.not-web-platform.test, DNS:www1.www1.not-web-platform.test, DNS:www2.www2.not-web-platform.test, DNS:www2.www1.not-web-platform.test, DNS:www1.www2.not-web-platform.test, DNS:xn--lve-6lad.not-web-platform.test, DNS:www.xn--lve-6lad.web-platform.test, DNS:xn--lve-6lad.www.web-platform.test, DNS:xn--lve-6lad.www2.web-platform.test, DNS:xn--lve-6lad.www1.web-platform.test, DNS:www2.xn--lve-6lad.web-platform.test, DNS:www1.xn--lve-6lad.web-platform.test, DNS:xn--lve-6lad.www.not-web-platform.test, DNS:www.xn--lve-6lad.not-web-platform.test, DNS:xn--lve-6lad.www2.not-web-platform.test, DNS:xn--lve-6lad.www1.not-web-platform.test, DNS:www1.xn--lve-6lad.not-web-platform.test, DNS:www2.xn--lve-6lad.not-web-platform.test, DNS:xn--n8j6ds53lwwkrqhv28a.web-platform.test, DNS:xn--lve-6lad.xn--lve-6lad.web-platform.test, DNS:xn--n8j6ds53lwwkrqhv28a.www.web-platform.test, DNS:www.xn--n8j6ds53lwwkrqhv28a.web-platform.test, DNS:xn--n8j6ds53lwwkrqhv28a.not-web-platform.test, DNS:www2.xn--n8j6ds53lwwkrqhv28a.web-platform.test, DNS:xn--n8j6ds53lwwkrqhv28a.www1.web-platform.test, DNS:xn--n8j6ds53lwwkrqhv28a.www2.web-platform.test, DNS:www1.xn--n8j6ds53lwwkrqhv28a.web-platform.test, DNS:xn--lve-6lad.xn--lve-6lad.not-web-platform.test, DNS:xn--n8j6ds53lwwkrqhv28a.www.not-web-platform.test, DNS:www.xn--n8j6ds53lwwkrqhv28a.not-web-platform.test, DNS:xn--n8j6ds53lwwkrqhv28a.www2.not-web-platform.test, DNS:xn--n8j6ds53lwwkrqhv28a.www1.not-web-platform.test, DNS:www2.xn--n8j6ds53lwwkrqhv28a.not-web-platform.test, DNS:www1.xn--n8j6ds53lwwkrqhv28a.not-web-platform.test, DNS:xn--lve-6lad.xn--n8j6ds53lwwkrqhv28a.web-platform.test, DNS:xn--n8j6ds53lwwkrqhv28a.xn--lve-6lad.web-platform.test, DNS:xn--n8j6ds53lwwkrqhv28a.xn--lve-6lad.not-web-platform.test, DNS:xn--lve-6lad.xn--n8j6ds53lwwkrqhv28a.not-web-platform.test, DNS:xn--n8j6ds53lwwkrqhv28a.xn--n8j6ds53lwwkrqhv28a.web-platform.test, DNS:xn--n8j6ds53lwwkrqhv28a.xn--n8j6ds53lwwkrqhv28a.not-web-platform.test
    Signature Algorithm: sha256WithRSAEncryption
         74:00:12:c7:43:34:fd:87:4e:f8:67:58:34:e2:c7:42:be:a8:
         fc:61:df:11:9c:77:18:d5:0b:e6:92:a1:c2:d9:9b:20:a5:ee:
         e8:81:ab:62:fb:55:67:35:95:fa:8b:b6:a5:3b:52:f7:d4:21:
         e8:7c:b5:37:12:58:02:24:b5:7e:93:4f:6c:ce:5b:4b:af:8f:
         fc:22:e2:03:2d:47:d2:87:43:c0:de:82:a7:5b:6a:97:2f:e9:
         f7:46:f4:41:d2:35:07:62:c5:a4:e8:08:a2:90:1d:44:4a:3d:
         71:d6:c5:f5:40:2d:99:0d:33:4f:0f:31:69:f7:02:bd:c5:44:
         b9:42:9e:f2:94:36:44:66:b8:b8:81:99:06:d2:b7:df:cb:b0:
         01:c8:5b:64:15:a4:75:78:da:71:b1:92:01:5b:55:7c:76:94:
         a2:f3:1a:23:78:37:e5:65:51:0f:ca:66:91:d4:62:1b:b7:22:
         d2:75:37:7e:67:ac:b5:9d:b3:50:c8:db:76:29:a1:73:21:74:
         71:9e:25:de:25:2a:2c:20:fb:e8:68:eb:9f:fc:f1:a7:85:69:
         a4:a8:0d:93:4b:ff:f5:9d:32:31:d3:ca:7e:0e:79:f3:45:32:
         d8:fc:35:12:d4:08:71:fd:e2:0e:64:55:a2:5a:f4:2f:be:19:
         f1:2d:be:3f
-----BEGIN CERTIFICATE-----
MIIMsjCCC5qgAwIBAgIDCrFcMA0GCSqGSIb3DQEBCwUAMB0xGzAZBgNVBAMMEndl
Yi1wbGF0Zm9ybS10ZXN0czAeFw0yMjA3MTIxMjQ1MTdaFw0yMzA3MTIxMjQ1MTda
MBwxGjAYBgNVBAMMEXdlYi1wbGF0Zm9ybS50ZXN0MIIBIjANBgkqhkiG9w0BAQEF
AAOCAQ8AMIIBCgKCAQEA39Q1lycQVnde3SKHx04ECAX7Kt9j4msYzf/PYDYQvqwe
ER8IZwl93Lryzwzr7zKQOBglwF96WHg0lTgZLOsbmTcduQUE71dMnQg4X+2FZJEW
X49cdG0T5J8EjQ4whNDTx+NAIIZkv4fk3xlPNK0AxY4tPxWqXLMJizJinAfZJfnb
7nZmklqgp1mU6U/5MiwVknefppAOktW69pUEiBOjeTvaGlNYwCtROo0NpXdwxTPC
SDUVvX7Me7uTjLtoHbPOAGxj3NWzzlvWnYBa3MZ4ImHRxmdIb2C4u0aH2w9zkdAk
4q+LcTXdGF3sE3BDSgXAW+4tg0T/SfJ7suWFIcnIFwIDAQABo4IJ+jCCCfYwCQYD
VR0TBAIwADAdBgNVHQ4EFgQUUzQUSYWm3n+k9ixCqRqc99kgUMEwHwYDVR0jBBgw
FoAUyjyS59xQOQvlRD/fb5Fc4ogqOtYwCwYDVR0PBAQDAgXgMBMGA1UdJQQMMAoG
CCsGAQUFBwMBMIIJhQYDVR0RBIIJfDCCCXiCEXdlYi1wbGF0Zm9ybS50ZXN0ghV3
d3cud2ViLXBsYXRmb3JtLnRlc3SCFW5vdC13ZWItcGxhdGZvcm0udGVzdIIWd3d3
MS53ZWItcGxhdGZvcm0udGVzdIIWd3d3Mi53ZWItcGxhdGZvcm0udGVzdIIZd3d3
Lnd3dy53ZWItcGxhdGZvcm0udGVzdIIZd3d3Lm5vdC13ZWItcGxhdGZvcm0udGVz
dIIad3d3Lnd3dzIud2ViLXBsYXRmb3JtLnRlc3SCGnd3dy53d3cxLndlYi1wbGF0
Zm9ybS50ZXN0ghp3d3cyLm5vdC13ZWItcGxhdGZvcm0udGVzdIIad3d3MS53d3cu
d2ViLXBsYXRmb3JtLnRlc3SCGnd3dzEubm90LXdlYi1wbGF0Zm9ybS50ZXN0ghp3
d3cyLnd3dy53ZWItcGxhdGZvcm0udGVzdIIbd3d3MS53d3cxLndlYi1wbGF0Zm9y
bS50ZXN0ght3d3cyLnd3dzEud2ViLXBsYXRmb3JtLnRlc3SCG3d3dzEud3d3Mi53
ZWItcGxhdGZvcm0udGVzdIIbd3d3Mi53d3cyLndlYi1wbGF0Zm9ybS50ZXN0gh13
d3cud3d3Lm5vdC13ZWItcGxhdGZvcm0udGVzdIIed3d3Mi53d3cubm90LXdlYi1w
bGF0Zm9ybS50ZXN0gh53d3cud3d3MS5ub3Qtd2ViLXBsYXRmb3JtLnRlc3SCHnd3
dzEud3d3Lm5vdC13ZWItcGxhdGZvcm0udGVzdIIeeG4tLWx2ZS02bGFkLndlYi1w
bGF0Zm9ybS50ZXN0gh53d3cud3d3Mi5ub3Qtd2ViLXBsYXRmb3JtLnRlc3SCH3d3
dzEud3d3MS5ub3Qtd2ViLXBsYXRmb3JtLnRlc3SCH3d3dzIud3d3Mi5ub3Qtd2Vi
LXBsYXRmb3JtLnRlc3SCH3d3dzIud3d3MS5ub3Qtd2ViLXBsYXRmb3JtLnRlc3SC
H3d3dzEud3d3Mi5ub3Qtd2ViLXBsYXRmb3JtLnRlc3SCInhuLS1sdmUtNmxhZC5u
b3Qtd2ViLXBsYXRmb3JtLnRlc3SCInd3dy54bi0tbHZlLTZsYWQud2ViLXBsYXRm
b3JtLnRlc3SCInhuLS1sdmUtNmxhZC53d3cud2ViLXBsYXRmb3JtLnRlc3SCI3hu
LS1sdmUtNmxhZC53d3cyLndlYi1wbGF0Zm9ybS50ZXN0giN4bi0tbHZlLTZsYWQu
d3d3MS53ZWItcGxhdGZvcm0udGVzdIIjd3d3Mi54bi0tbHZlLTZsYWQud2ViLXBs
YXRmb3JtLnRlc3SCI3d3dzEueG4tLWx2ZS02bGFkLndlYi1wbGF0Zm9ybS50ZXN0
giZ4bi0tbHZlLTZsYWQud3d3Lm5vdC13ZWItcGxhdGZvcm0udGVzdIImd3d3Lnhu
LS1sdmUtNmxhZC5ub3Qtd2ViLXBsYXRmb3JtLnRlc3SCJ3huLS1sdmUtNmxhZC53
d3cyLm5vdC13ZWItcGxhdGZvcm0udGVzdIIneG4tLWx2ZS02bGFkLnd3dzEubm90
LXdlYi1wbGF0Zm9ybS50ZXN0gid3d3cxLnhuLS1sdmUtNmxhZC5ub3Qtd2ViLXBs
YXRmb3JtLnRlc3SCJ3d3dzIueG4tLWx2ZS02bGFkLm5vdC13ZWItcGxhdGZvcm0u
dGVzdIIpeG4tLW44ajZkczUzbHd3a3JxaHYyOGEud2ViLXBsYXRmb3JtLnRlc3SC
K3huLS1sdmUtNmxhZC54bi0tbHZlLTZsYWQud2ViLXBsYXRmb3JtLnRlc3SCLXhu
LS1uOGo2ZHM1M2x3d2tycWh2MjhhLnd3dy53ZWItcGxhdGZvcm0udGVzdIItd3d3
LnhuLS1uOGo2ZHM1M2x3d2tycWh2MjhhLndlYi1wbGF0Zm9ybS50ZXN0gi14bi0t
bjhqNmRzNTNsd3drcnFodjI4YS5ub3Qtd2ViLXBsYXRmb3JtLnRlc3SCLnd3dzIu
eG4tLW44ajZkczUzbHd3a3JxaHYyOGEud2ViLXBsYXRmb3JtLnRlc3SCLnhuLS1u
OGo2ZHM1M2x3d2tycWh2MjhhLnd3dzEud2ViLXBsYXRmb3JtLnRlc3SCLnhuLS1u
OGo2ZHM1M2x3d2tycWh2MjhhLnd3dzIud2ViLXBsYXRmb3JtLnRlc3SCLnd3dzEu
eG4tLW44ajZkczUzbHd3a3JxaHYyOGEud2ViLXBsYXRmb3JtLnRlc3SCL3huLS1s
dmUtNmxhZC54bi0tbHZlLTZsYWQubm90LXdlYi1wbGF0Zm9ybS50ZXN0gjF4bi0t
bjhqNmRzNTNsd3drcnFodjI4YS53d3cubm90LXdlYi1wbGF0Zm9ybS50ZXN0gjF3
d3cueG4tLW44ajZkczUzbHd3a3JxaHYyOGEubm90LXdlYi1wbGF0Zm9ybS50ZXN0
gjJ4bi0tbjhqNmRzNTNsd3drcnFodjI4YS53d3cyLm5vdC13ZWItcGxhdGZvcm0u
dGVzdIIyeG4tLW44ajZkczUzbHd3a3JxaHYyOGEud3d3MS5ub3Qtd2ViLXBsYXRm
b3JtLnRlc3SCMnd3dzIueG4tLW44ajZkczUzbHd3a3JxaHYyOGEubm90LXdlYi1w
bGF0Zm9ybS50ZXN0gjJ3d3cxLnhuLS1uOGo2ZHM1M2x3d2tycWh2MjhhLm5vdC13
ZWItcGxhdGZvcm0udGVzdII2eG4tLWx2ZS02bGFkLnhuLS1uOGo2ZHM1M2x3d2ty
cWh2MjhhLndlYi1wbGF0Zm9ybS50ZXN0gjZ4bi0tbjhqNmRzNTNsd3drcnFodjI4
YS54bi0tbHZlLTZsYWQud2ViLXBsYXRmb3JtLnRlc3SCOnhuLS1uOGo2ZHM1M2x3
d2tycWh2MjhhLnhuLS1sdmUtNmxhZC5ub3Qtd2ViLXBsYXRmb3JtLnRlc3SCOnhu
LS1sdmUtNmxhZC54bi0tbjhqNmRzNTNsd3drcnFodjI4YS5ub3Qtd2ViLXBsYXRm
b3JtLnRlc3SCQXhuLS1uOGo2ZHM1M2x3d2tycWh2MjhhLnhuLS1uOGo2ZHM1M2x3
d2tycWh2MjhhLndlYi1wbGF0Zm9ybS50ZXN0gkV4bi0tbjhqNmRzNTNsd3drcnFo
djI4YS54bi0tbjhqNmRzNTNsd3drcnFodjI4YS5ub3Qtd2ViLXBsYXRmb3JtLnRl
c3QwDQYJKoZIhvcNAQELBQADggEBAHQAEsdDNP2HTvhnWDTix0K+qPxh3xGcdxjV
C+aSocLZmyCl7uiBq2L7VWc1lfqLtqU7UvfUIeh8tTcSWAIktX6TT2zOW0uvj/wi
4gMtR9KHQ8Degqdbapcv6fdG9EHSNQdixaToCKKQHURKPXHWxfVALZkNM08PMWn3
Ar3FRLlCnvKUNkRmuLiBmQbSt9/LsAHIW2QVpHV42nGxkgFbVXx2lKLzGiN4N+Vl
UQ/KZpHUYhu3ItJ1N35nrLWds1DI23YpoXMhdHGeJd4lKiwg++ho65/88aeFaaSo
DZNL//WdMjHTyn4OefNFMtj8NRLUCHH94g5kVaJa9C++GfEtvj8=
-----END CERTIFICATE-----
