Certificate:
    Data:
        Version: 3 (0x2)
        Serial Number: 373064 (0x5b148)
    Signature Algorithm: sha256WithRSAEncryption
        Issuer: CN=web-platform-tests
        Validity
            Not Before: Oct 14 13:49:29 2019 GMT
            Not After : Oct 11 13:49:29 2029 GMT
        Subject: CN=web-platform.test
        Subject Public Key Info:
            Public Key Algorithm: rsaEncryption
                Public-Key: (2048 bit)
                Modulus:
                    00:ab:65:75:57:98:e3:e5:aa:8f:fe:db:18:f5:e4:
                    f8:1c:64:61:c6:a3:f6:e8:7e:24:10:de:09:7a:24:
                    bd:55:5f:51:a9:b5:82:0d:85:3a:b6:b1:48:5f:37:
                    cb:42:6f:e7:07:cb:36:a9:3b:da:14:9b:0a:b0:a7:
                    95:29:ee:d2:78:22:9e:ee:13:5f:f0:c1:2c:55:72:
                    f0:9a:c0:6e:7f:3c:de:62:0f:b1:f6:c2:c9:84:a6:
                    91:d7:39:cd:cb:97:4f:39:fe:0c:de:b3:ed:7e:36:
                    7f:aa:01:19:a9:d5:b1:7f:be:3a:65:0f:a5:5d:1f:
                    6a:c1:5b:7b:09:dc:30:28:05:aa:17:94:03:1f:79:
                    10:05:0e:96:aa:6b:ef:65:c4:ca:cc:e5:69:14:1e:
                    77:50:fa:e1:0c:ea:46:72:7a:f8:72:a7:4d:97:0c:
                    fd:2f:2f:03:42:b4:f2:c6:07:47:a6:00:07:c2:ef:
                    1a:70:44:65:46:4a:d1:2c:52:17:ff:99:cf:72:34:
                    d6:8a:82:a0:4a:23:49:e8:a1:59:ee:53:74:46:74:
                    a1:cf:d7:cb:dc:8e:d0:52:57:49:58:82:37:e0:f5:
                    ad:3b:38:1b:b5:86:04:1f:7e:1a:1f:8b:60:72:75:
                    f6:82:a4:10:0c:cc:58:65:bb:5b:b2:b3:a6:a1:56:
                    42:69
                Exponent: 65537 (0x10001)
        X509v3 extensions:
            X509v3 Basic Constraints: 
                CA:FALSE
            X509v3 Subject Key Identifier: 
                2A:18:0B:09:22:6E:28:D2:DB:FD:C2:2D:40:A6:F3:38:62:6E:C7:C5
            X509v3 Authority Key Identifier: 
                keyid:41:49:FF:8C:66:50:5F:87:A1:06:A8:BB:AB:8A:DD:73:0D:0E:37:1A

            X509v3 Key Usage: 
                Digital Signature, Non Repudiation, Key Encipherment
            X509v3 Extended Key Usage: 
                TLS Web Server Authentication
            X509v3 Subject Alternative Name: 
                DNS:web-platform.test, DNS:not-web-platform.test, DNS:www.web-platform.test, DNS:www1.web-platform.test, DNS:www2.web-platform.test, DNS:www.not-web-platform.test, DNS:www.www.web-platform.test, DNS:www2.not-web-platform.test, DNS:www1.not-web-platform.test, DNS:www.www2.web-platform.test, DNS:www2.www.web-platform.test, DNS:www1.www.web-platform.test, DNS:www.www1.web-platform.test, DNS:www1.www1.web-platform.test, DNS:www1.www2.web-platform.test, DNS:www2.www2.web-platform.test, DNS:www2.www1.web-platform.test, DNS:www.www.not-web-platform.test, DNS:www.www2.not-web-platform.test, DNS:www1.www.not-web-platform.test, DNS:xn--lve-6lad.web-platform.test, DNS:www.www1.not-web-platform.test, DNS:www2.www.not-web-platform.test, DNS:www2.www2.not-web-platform.test, DNS:www2.www1.not-web-platform.test, DNS:www1.www1.not-web-platform.test, DNS:www1.www2.not-web-platform.test, DNS:xn--lve-6lad.www.web-platform.test, DNS:www.xn--lve-6lad.web-platform.test, DNS:xn--lve-6lad.not-web-platform.test, DNS:xn--lve-6lad.www1.web-platform.test, DNS:www2.xn--lve-6lad.web-platform.test, DNS:www1.xn--lve-6lad.web-platform.test, DNS:xn--lve-6lad.www2.web-platform.test, DNS:xn--lve-6lad.www.not-web-platform.test, DNS:www.xn--lve-6lad.not-web-platform.test, DNS:xn--lve-6lad.www1.not-web-platform.test, DNS:www2.xn--lve-6lad.not-web-platform.test, DNS:www1.xn--lve-6lad.not-web-platform.test, DNS:xn--lve-6lad.www2.not-web-platform.test, DNS:xn--n8j6ds53lwwkrqhv28a.web-platform.test, DNS:xn--lve-6lad.xn--lve-6lad.web-platform.test, DNS:xn--n8j6ds53lwwkrqhv28a.not-web-platform.test, DNS:xn--n8j6ds53lwwkrqhv28a.www.web-platform.test, DNS:www.xn--n8j6ds53lwwkrqhv28a.web-platform.test, DNS:www1.xn--n8j6ds53lwwkrqhv28a.web-platform.test, DNS:xn--n8j6ds53lwwkrqhv28a.www1.web-platform.test, DNS:www2.xn--n8j6ds53lwwkrqhv28a.web-platform.test, DNS:xn--n8j6ds53lwwkrqhv28a.www2.web-platform.test, DNS:xn--lve-6lad.xn--lve-6lad.not-web-platform.test, DNS:xn--n8j6ds53lwwkrqhv28a.www.not-web-platform.test, DNS:www.xn--n8j6ds53lwwkrqhv28a.not-web-platform.test, DNS:www1.xn--n8j6ds53lwwkrqhv28a.not-web-platform.test, DNS:xn--n8j6ds53lwwkrqhv28a.www2.not-web-platform.test, DNS:xn--n8j6ds53lwwkrqhv28a.www1.not-web-platform.test, DNS:www2.xn--n8j6ds53lwwkrqhv28a.not-web-platform.test, DNS:xn--n8j6ds53lwwkrqhv28a.xn--lve-6lad.web-platform.test, DNS:xn--lve-6lad.xn--n8j6ds53lwwkrqhv28a.web-platform.test, DNS:xn--lve-6lad.xn--n8j6ds53lwwkrqhv28a.not-web-platform.test, DNS:xn--n8j6ds53lwwkrqhv28a.xn--lve-6lad.not-web-platform.test, DNS:xn--n8j6ds53lwwkrqhv28a.xn--n8j6ds53lwwkrqhv28a.web-platform.test, DNS:xn--n8j6ds53lwwkrqhv28a.xn--n8j6ds53lwwkrqhv28a.not-web-platform.test
    Signature Algorithm: sha256WithRSAEncryption
         af:c2:ea:cc:6a:5e:49:e0:db:72:14:05:3c:21:a0:8b:ff:b6:
         a9:71:82:f7:61:cd:23:2a:00:66:91:ac:01:99:63:38:11:21:
         85:b2:57:92:0b:3f:79:68:f5:d8:59:8b:a7:74:19:eb:0b:e7:
         3d:86:4e:66:d4:e6:2f:ff:ed:6c:7d:9a:5e:12:4e:bf:39:ff:
         f7:d0:fb:52:53:a0:fb:b1:5c:9a:91:92:36:00:d8:a4:6f:f9:
         9c:36:21:b2:c2:5e:14:11:ca:55:e7:88:30:60:8d:86:da:65:
         26:ff:e2:45:36:2a:09:3d:a4:bb:38:61:4d:57:e4:c9:b6:50:
         3c:06:2f:6b:bf:04:34:42:54:dc:53:b6:61:c5:4e:40:00:d6:
         5e:19:17:3a:54:2c:c5:16:7a:6d:4a:70:56:45:cd:99:5a:2a:
         d1:a7:4e:35:97:3d:d8:c9:95:80:ab:15:42:86:f6:a0:a6:c3:
         21:c1:9a:07:34:49:ad:61:3c:bc:94:b2:2d:92:f7:44:80:01:
         5f:27:bd:83:f5:51:22:39:cd:98:b1:39:23:b8:f4:5c:08:20:
         9e:fe:f1:2d:9a:e9:9b:c7:5e:b8:33:8b:16:77:52:3d:c9:7a:
         43:9e:25:d0:c7:5a:96:08:53:1a:dc:75:53:75:44:62:18:7c:
         ef:fb:73:52
-----BEGIN CERTIFICATE-----
MIIMsjCCC5qgAwIBAgIDBbFIMA0GCSqGSIb3DQEBCwUAMB0xGzAZBgNVBAMMEndl
Yi1wbGF0Zm9ybS10ZXN0czAeFw0xOTEwMTQxMzQ5MjlaFw0yOTEwMTExMzQ5Mjla
MBwxGjAYBgNVBAMMEXdlYi1wbGF0Zm9ybS50ZXN0MIIBIjANBgkqhkiG9w0BAQEF
AAOCAQ8AMIIBCgKCAQEAq2V1V5jj5aqP/tsY9eT4HGRhxqP26H4kEN4JeiS9VV9R
qbWCDYU6trFIXzfLQm/nB8s2qTvaFJsKsKeVKe7SeCKe7hNf8MEsVXLwmsBufzze
Yg+x9sLJhKaR1znNy5dPOf4M3rPtfjZ/qgEZqdWxf746ZQ+lXR9qwVt7CdwwKAWq
F5QDH3kQBQ6WqmvvZcTKzOVpFB53UPrhDOpGcnr4cqdNlwz9Ly8DQrTyxgdHpgAH
wu8acERlRkrRLFIX/5nPcjTWioKgSiNJ6KFZ7lN0RnShz9fL3I7QUldJWII34PWt
OzgbtYYEH34aH4tgcnX2gqQQDMxYZbtbsrOmoVZCaQIDAQABo4IJ+jCCCfYwCQYD
VR0TBAIwADAdBgNVHQ4EFgQUKhgLCSJuKNLb/cItQKbzOGJux8UwHwYDVR0jBBgw
FoAUQUn/jGZQX4ehBqi7q4rdcw0ONxowCwYDVR0PBAQDAgXgMBMGA1UdJQQMMAoG
CCsGAQUFBwMBMIIJhQYDVR0RBIIJfDCCCXiCEXdlYi1wbGF0Zm9ybS50ZXN0ghVu
b3Qtd2ViLXBsYXRmb3JtLnRlc3SCFXd3dy53ZWItcGxhdGZvcm0udGVzdIIWd3d3
MS53ZWItcGxhdGZvcm0udGVzdIIWd3d3Mi53ZWItcGxhdGZvcm0udGVzdIIZd3d3
Lm5vdC13ZWItcGxhdGZvcm0udGVzdIIZd3d3Lnd3dy53ZWItcGxhdGZvcm0udGVz
dIIad3d3Mi5ub3Qtd2ViLXBsYXRmb3JtLnRlc3SCGnd3dzEubm90LXdlYi1wbGF0
Zm9ybS50ZXN0ghp3d3cud3d3Mi53ZWItcGxhdGZvcm0udGVzdIIad3d3Mi53d3cu
d2ViLXBsYXRmb3JtLnRlc3SCGnd3dzEud3d3LndlYi1wbGF0Zm9ybS50ZXN0ghp3
d3cud3d3MS53ZWItcGxhdGZvcm0udGVzdIIbd3d3MS53d3cxLndlYi1wbGF0Zm9y
bS50ZXN0ght3d3cxLnd3dzIud2ViLXBsYXRmb3JtLnRlc3SCG3d3dzIud3d3Mi53
ZWItcGxhdGZvcm0udGVzdIIbd3d3Mi53d3cxLndlYi1wbGF0Zm9ybS50ZXN0gh13
d3cud3d3Lm5vdC13ZWItcGxhdGZvcm0udGVzdIIed3d3Lnd3dzIubm90LXdlYi1w
bGF0Zm9ybS50ZXN0gh53d3cxLnd3dy5ub3Qtd2ViLXBsYXRmb3JtLnRlc3SCHnhu
LS1sdmUtNmxhZC53ZWItcGxhdGZvcm0udGVzdIIed3d3Lnd3dzEubm90LXdlYi1w
bGF0Zm9ybS50ZXN0gh53d3cyLnd3dy5ub3Qtd2ViLXBsYXRmb3JtLnRlc3SCH3d3
dzIud3d3Mi5ub3Qtd2ViLXBsYXRmb3JtLnRlc3SCH3d3dzIud3d3MS5ub3Qtd2Vi
LXBsYXRmb3JtLnRlc3SCH3d3dzEud3d3MS5ub3Qtd2ViLXBsYXRmb3JtLnRlc3SC
H3d3dzEud3d3Mi5ub3Qtd2ViLXBsYXRmb3JtLnRlc3SCInhuLS1sdmUtNmxhZC53
d3cud2ViLXBsYXRmb3JtLnRlc3SCInd3dy54bi0tbHZlLTZsYWQud2ViLXBsYXRm
b3JtLnRlc3SCInhuLS1sdmUtNmxhZC5ub3Qtd2ViLXBsYXRmb3JtLnRlc3SCI3hu
LS1sdmUtNmxhZC53d3cxLndlYi1wbGF0Zm9ybS50ZXN0giN3d3cyLnhuLS1sdmUt
NmxhZC53ZWItcGxhdGZvcm0udGVzdIIjd3d3MS54bi0tbHZlLTZsYWQud2ViLXBs
YXRmb3JtLnRlc3SCI3huLS1sdmUtNmxhZC53d3cyLndlYi1wbGF0Zm9ybS50ZXN0
giZ4bi0tbHZlLTZsYWQud3d3Lm5vdC13ZWItcGxhdGZvcm0udGVzdIImd3d3Lnhu
LS1sdmUtNmxhZC5ub3Qtd2ViLXBsYXRmb3JtLnRlc3SCJ3huLS1sdmUtNmxhZC53
d3cxLm5vdC13ZWItcGxhdGZvcm0udGVzdIInd3d3Mi54bi0tbHZlLTZsYWQubm90
LXdlYi1wbGF0Zm9ybS50ZXN0gid3d3cxLnhuLS1sdmUtNmxhZC5ub3Qtd2ViLXBs
YXRmb3JtLnRlc3SCJ3huLS1sdmUtNmxhZC53d3cyLm5vdC13ZWItcGxhdGZvcm0u
dGVzdIIpeG4tLW44ajZkczUzbHd3a3JxaHYyOGEud2ViLXBsYXRmb3JtLnRlc3SC
K3huLS1sdmUtNmxhZC54bi0tbHZlLTZsYWQud2ViLXBsYXRmb3JtLnRlc3SCLXhu
LS1uOGo2ZHM1M2x3d2tycWh2MjhhLm5vdC13ZWItcGxhdGZvcm0udGVzdIIteG4t
LW44ajZkczUzbHd3a3JxaHYyOGEud3d3LndlYi1wbGF0Zm9ybS50ZXN0gi13d3cu
eG4tLW44ajZkczUzbHd3a3JxaHYyOGEud2ViLXBsYXRmb3JtLnRlc3SCLnd3dzEu
eG4tLW44ajZkczUzbHd3a3JxaHYyOGEud2ViLXBsYXRmb3JtLnRlc3SCLnhuLS1u
OGo2ZHM1M2x3d2tycWh2MjhhLnd3dzEud2ViLXBsYXRmb3JtLnRlc3SCLnd3dzIu
eG4tLW44ajZkczUzbHd3a3JxaHYyOGEud2ViLXBsYXRmb3JtLnRlc3SCLnhuLS1u
OGo2ZHM1M2x3d2tycWh2MjhhLnd3dzIud2ViLXBsYXRmb3JtLnRlc3SCL3huLS1s
dmUtNmxhZC54bi0tbHZlLTZsYWQubm90LXdlYi1wbGF0Zm9ybS50ZXN0gjF4bi0t
bjhqNmRzNTNsd3drcnFodjI4YS53d3cubm90LXdlYi1wbGF0Zm9ybS50ZXN0gjF3
d3cueG4tLW44ajZkczUzbHd3a3JxaHYyOGEubm90LXdlYi1wbGF0Zm9ybS50ZXN0
gjJ3d3cxLnhuLS1uOGo2ZHM1M2x3d2tycWh2MjhhLm5vdC13ZWItcGxhdGZvcm0u
dGVzdIIyeG4tLW44ajZkczUzbHd3a3JxaHYyOGEud3d3Mi5ub3Qtd2ViLXBsYXRm
b3JtLnRlc3SCMnhuLS1uOGo2ZHM1M2x3d2tycWh2MjhhLnd3dzEubm90LXdlYi1w
bGF0Zm9ybS50ZXN0gjJ3d3cyLnhuLS1uOGo2ZHM1M2x3d2tycWh2MjhhLm5vdC13
ZWItcGxhdGZvcm0udGVzdII2eG4tLW44ajZkczUzbHd3a3JxaHYyOGEueG4tLWx2
ZS02bGFkLndlYi1wbGF0Zm9ybS50ZXN0gjZ4bi0tbHZlLTZsYWQueG4tLW44ajZk
czUzbHd3a3JxaHYyOGEud2ViLXBsYXRmb3JtLnRlc3SCOnhuLS1sdmUtNmxhZC54
bi0tbjhqNmRzNTNsd3drcnFodjI4YS5ub3Qtd2ViLXBsYXRmb3JtLnRlc3SCOnhu
LS1uOGo2ZHM1M2x3d2tycWh2MjhhLnhuLS1sdmUtNmxhZC5ub3Qtd2ViLXBsYXRm
b3JtLnRlc3SCQXhuLS1uOGo2ZHM1M2x3d2tycWh2MjhhLnhuLS1uOGo2ZHM1M2x3
d2tycWh2MjhhLndlYi1wbGF0Zm9ybS50ZXN0gkV4bi0tbjhqNmRzNTNsd3drcnFo
djI4YS54bi0tbjhqNmRzNTNsd3drcnFodjI4YS5ub3Qtd2ViLXBsYXRmb3JtLnRl
c3QwDQYJKoZIhvcNAQELBQADggEBAK/C6sxqXkng23IUBTwhoIv/tqlxgvdhzSMq
AGaRrAGZYzgRIYWyV5ILP3lo9dhZi6d0GesL5z2GTmbU5i//7Wx9ml4STr85//fQ
+1JToPuxXJqRkjYA2KRv+Zw2IbLCXhQRylXniDBgjYbaZSb/4kU2Kgk9pLs4YU1X
5Mm2UDwGL2u/BDRCVNxTtmHFTkAA1l4ZFzpULMUWem1KcFZFzZlaKtGnTjWXPdjJ
lYCrFUKG9qCmwyHBmgc0Sa1hPLyUsi2S90SAAV8nvYP1USI5zZixOSO49FwIIJ7+
8S2a6ZvHXrgzixZ3Uj3JekOeJdDHWpYIUxrcdVN1RGIYfO/7c1I=
-----END CERTIFICATE-----
